	.file	"interpreter.cpp"
	.section	.text.unlikely,"ax",@progbits
	.align 2
.LCOLDB5:
	.text
.LHOTB5:
	.align 2
	.p2align 4,,15
	.globl	_ZN3GVM11Interpreter7executeEv
	.type	_ZN3GVM11Interpreter7executeEv, @function
_ZN3GVM11Interpreter7executeEv:
.LFB119:
	.cfi_startproc
	pushl	%ebp
	.cfi_def_cfa_offset 8
	.cfi_offset 5, -8
	pushl	%edi
	.cfi_def_cfa_offset 12
	.cfi_offset 7, -12
	pushl	%esi
	.cfi_def_cfa_offset 16
	.cfi_offset 6, -16
	pushl	%ebx
	.cfi_def_cfa_offset 20
	.cfi_offset 3, -20
	subl	$28, %esp
	.cfi_def_cfa_offset 48
	movl	48(%esp), %esi
	movl	80(%esi), %ebx
	movl	$0, 84(%esi)
	.p2align 4,,10
	.p2align 3
.L2:
	leal	1(%ebx), %eax
	leal	2(%ebx), %edi
	movl	%eax, 80(%esi)
	movl	%eax, 12(%esp)
	movzbl	(%ebx), %eax
	movl	%edi, 80(%esi)
	movzbl	1(%ebx), %edx
	movl	%edx, %ecx
	andl	$15, %ecx
	movb	%cl, 4(%esp)
	movzbl	%dl, %ecx
	movl	%ecx, %ebp
	sarl	$4, %ebp
	cmpb	$-39, %al
	movl	%ebp, 8(%esp)
	ja	.L3
	jmp	*.L5(,%eax,4)
	.section	.rodata
	.align 4
	.align 4
.L5:
	.long	.L4
	.long	.L6
	.long	.L7
	.long	.L8
	.long	.L9
	.long	.L10
	.long	.L11
	.long	.L12
	.long	.L13
	.long	.L14
	.long	.L15
	.long	.L16
	.long	.L17
	.long	.L18
	.long	.L19
	.long	.L20
	.long	.L21
	.long	.L22
	.long	.L23
	.long	.L24
	.long	.L25
	.long	.L26
	.long	.L27
	.long	.L28
	.long	.L29
	.long	.L30
	.long	.L31
	.long	.L32
	.long	.L33
	.long	.L34
	.long	.L35
	.long	.L36
	.long	.L37
	.long	.L38
	.long	.L39
	.long	.L40
	.long	.L41
	.long	.L42
	.long	.L43
	.long	.L44
	.long	.L45
	.long	.L46
	.long	.L47
	.long	.L48
	.long	.L49
	.long	.L50
	.long	.L51
	.long	.L52
	.long	.L53
	.long	.L54
	.long	.L55
	.long	.L56
	.long	.L57
	.long	.L58
	.long	.L59
	.long	.L60
	.long	.L61
	.long	.L62
	.long	.L63
	.long	.L64
	.long	.L65
	.long	.L66
	.long	.L67
	.long	.L68
	.long	.L69
	.long	.L70
	.long	.L71
	.long	.L72
	.long	.L73
	.long	.L74
	.long	.L75
	.long	.L76
	.long	.L77
	.long	.L78
	.long	.L79
	.long	.L80
	.long	.L81
	.long	.L82
	.long	.L83
	.long	.L84
	.long	.L85
	.long	.L86
	.long	.L87
	.long	.L88
	.long	.L89
	.long	.L90
	.long	.L91
	.long	.L92
	.long	.L93
	.long	.L94
	.long	.L95
	.long	.L96
	.long	.L97
	.long	.L98
	.long	.L99
	.long	.L100
	.long	.L101
	.long	.L102
	.long	.L103
	.long	.L104
	.long	.L105
	.long	.L106
	.long	.L107
	.long	.L108
	.long	.L109
	.long	.L110
	.long	.L111
	.long	.L112
	.long	.L113
	.long	.L114
	.long	.L115
	.long	.L116
	.long	.L117
	.long	.L118
	.long	.L119
	.long	.L120
	.long	.L121
	.long	.L122
	.long	.L123
	.long	.L124
	.long	.L125
	.long	.L126
	.long	.L127
	.long	.L128
	.long	.L129
	.long	.L130
	.long	.L131
	.long	.L132
	.long	.L133
	.long	.L134
	.long	.L135
	.long	.L136
	.long	.L137
	.long	.L138
	.long	.L139
	.long	.L140
	.long	.L141
	.long	.L142
	.long	.L143
	.long	.L144
	.long	.L145
	.long	.L146
	.long	.L147
	.long	.L148
	.long	.L149
	.long	.L150
	.long	.L151
	.long	.L152
	.long	.L153
	.long	.L154
	.long	.L155
	.long	.L156
	.long	.L157
	.long	.L158
	.long	.L159
	.long	.L160
	.long	.L161
	.long	.L162
	.long	.L163
	.long	.L164
	.long	.L165
	.long	.L166
	.long	.L167
	.long	.L168
	.long	.L169
	.long	.L170
	.long	.L171
	.long	.L172
	.long	.L173
	.long	.L174
	.long	.L175
	.long	.L176
	.long	.L177
	.long	.L178
	.long	.L179
	.long	.L180
	.long	.L181
	.long	.L182
	.long	.L183
	.long	.L184
	.long	.L185
	.long	.L186
	.long	.L187
	.long	.L188
	.long	.L189
	.long	.L190
	.long	.L191
	.long	.L192
	.long	.L193
	.long	.L194
	.long	.L195
	.long	.L196
	.long	.L197
	.long	.L198
	.long	.L199
	.long	.L200
	.long	.L201
	.long	.L202
	.long	.L203
	.long	.L204
	.long	.L205
	.long	.L206
	.long	.L207
	.long	.L208
	.long	.L209
	.long	.L210
	.long	.L211
	.long	.L212
	.long	.L213
	.long	.L214
	.long	.L215
	.long	.L216
	.long	.L217
	.long	.L218
	.long	.L219
	.long	.L220
	.long	.L221
	.long	.L222
	.text
.L221:
	leal	3(%ebx), %eax
	movl	8(%esp), %edi
	movzbl	4(%esp), %edx
	movl	%eax, 80(%esi)
	movzbl	2(%ebx), %ebx
	movl	(%esi,%edi,4), %ecx
	movl	(%ecx,%ebx,4), %ecx
	movl	%eax, %ebx
	shrl	%cl, (%esi,%edx,4)
	jmp	.L2
.L220:
	movzbl	4(%esp), %edx
	leal	3(%ebx), %eax
	movl	8(%esp), %edi
	movl	%eax, 80(%esi)
	movzbl	2(%ebx), %ebp
	movl	(%esi,%edi,4), %ebx
	movl	(%esi,%edx,4), %edx
	movl	%ebx, %ecx
	movl	%eax, %ebx
	shrl	%cl, (%edx,%ebp,4)
	jmp	.L2
.L219:
	movzbl	4(%esp), %eax
	movl	8(%esp), %edx
	movl	%edi, %ebx
	movl	(%esi,%edx,4), %ecx
	shrl	%cl, (%esi,%eax,4)
	jmp	.L2
.L218:
	movzbl	4(%esp), %edx
	leal	3(%ebx), %eax
	movl	%eax, 80(%esi)
	movzbl	2(%ebx), %edi
	movl	8(%esp), %ebx
	movl	(%esi,%edx,4), %edx
	addl	$1, %ebx
	movl	%ebx, %ecx
	movl	%eax, %ebx
	shrl	%cl, (%edx,%edi,4)
	jmp	.L2
.L217:
	movzbl	4(%esp), %eax
	movl	8(%esp), %ecx
	movl	%edi, %ebx
	addl	$1, %ecx
	shrl	%cl, (%esi,%eax,4)
	jmp	.L2
.L216:
	leal	3(%ebx), %eax
	movl	8(%esp), %edi
	leal	4(%ebx), %edx
	movzbl	4(%esp), %ecx
	movl	%eax, 80(%esi)
	movzbl	2(%ebx), %eax
	movl	%edx, 80(%esi)
	movl	(%esi,%edi,4), %edi
	movzbl	3(%ebx), %ebx
	movl	(%esi,%ecx,4), %ebp
	movl	(%edi,%eax,4), %eax
	movl	%eax, %ecx
	sall	%cl, 0(%ebp,%ebx,4)
	movl	%edx, %ebx
	jmp	.L2
.L215:
	leal	3(%ebx), %eax
	movl	8(%esp), %edi
	movzbl	4(%esp), %edx
	movl	%eax, 80(%esi)
	movzbl	2(%ebx), %ebx
	movl	(%esi,%edi,4), %ecx
	movl	(%ecx,%ebx,4), %ecx
	movl	%eax, %ebx
	sall	%cl, (%esi,%edx,4)
	jmp	.L2
.L214:
	movzbl	4(%esp), %edx
	leal	3(%ebx), %eax
	movl	8(%esp), %edi
	movl	%eax, 80(%esi)
	movzbl	2(%ebx), %ebp
	movl	(%esi,%edi,4), %ebx
	movl	(%esi,%edx,4), %edx
	movl	%ebx, %ecx
	movl	%eax, %ebx
	sall	%cl, (%edx,%ebp,4)
	jmp	.L2
.L213:
	movzbl	4(%esp), %eax
	movl	8(%esp), %edx
	movl	%edi, %ebx
	movl	(%esi,%edx,4), %ecx
	sall	%cl, (%esi,%eax,4)
	jmp	.L2
.L212:
	movzbl	4(%esp), %edx
	leal	3(%ebx), %eax
	movl	%eax, 80(%esi)
	movzbl	2(%ebx), %edi
	movl	8(%esp), %ebx
	movl	(%esi,%edx,4), %edx
	addl	$1, %ebx
	movl	%ebx, %ecx
	movl	%eax, %ebx
	sall	%cl, (%edx,%edi,4)
	jmp	.L2
.L211:
	movzbl	4(%esp), %eax
	movl	8(%esp), %ecx
	movl	%edi, %ebx
	addl	$1, %ecx
	sall	%cl, (%esi,%eax,4)
	jmp	.L2
.L210:
	leal	3(%ebx), %eax
	movl	8(%esp), %edi
	leal	4(%ebx), %edx
	movzbl	4(%esp), %ecx
	movl	%eax, 80(%esi)
	movzbl	2(%ebx), %eax
	movl	%edx, 80(%esi)
	movl	(%esi,%edi,4), %edi
	movzbl	3(%ebx), %ebx
	movl	(%esi,%ecx,4), %ecx
	movl	(%edi,%eax,4), %eax
	notl	%eax
	movl	%eax, (%ecx,%ebx,4)
	movl	%edx, %ebx
	jmp	.L2
.L209:
	leal	3(%ebx), %edx
	movl	8(%esp), %eax
	movzbl	4(%esp), %ecx
	movl	%edx, 80(%esi)
	movzbl	2(%ebx), %ebx
	movl	(%esi,%eax,4), %eax
	movl	(%eax,%ebx,4), %eax
	movl	%edx, %ebx
	notl	%eax
	movl	%eax, (%esi,%ecx,4)
	jmp	.L2
.L208:
	movzbl	4(%esp), %eax
	leal	3(%ebx), %edx
	movl	%edx, 80(%esi)
	movzbl	2(%ebx), %ebx
	movl	(%esi,%eax,4), %ecx
	movl	8(%esp), %eax
	movl	(%esi,%eax,4), %eax
	notl	%eax
	movl	%eax, (%ecx,%ebx,4)
	movl	%edx, %ebx
	jmp	.L2
.L207:
	movl	8(%esp), %eax
	movzbl	4(%esp), %edx
	movl	%edi, %ebx
	movl	(%esi,%eax,4), %eax
	notl	%eax
	movl	%eax, (%esi,%edx,4)
	jmp	.L2
.L206:
	movzbl	4(%esp), %ecx
	leal	3(%ebx), %eax
	leal	4(%ebx), %edx
	movl	8(%esp), %edi
	movl	%eax, 80(%esi)
	movzbl	2(%ebx), %eax
	movl	%edx, 80(%esi)
	movzbl	3(%ebx), %ebx
	movl	(%esi,%edi,4), %edi
	movl	(%esi,%ecx,4), %ecx
	movl	(%edi,%eax,4), %eax
	xorl	%eax, (%ecx,%ebx,4)
	movl	%edx, %ebx
	jmp	.L2
.L205:
	leal	3(%ebx), %eax
	movl	8(%esp), %edi
	movzbl	4(%esp), %edx
	movl	%eax, 80(%esi)
	movzbl	2(%ebx), %ebx
	movl	(%esi,%edi,4), %ecx
	movl	(%ecx,%ebx,4), %ecx
	movl	%eax, %ebx
	xorl	%ecx, (%esi,%edx,4)
	jmp	.L2
.L204:
	movzbl	4(%esp), %edx
	leal	3(%ebx), %eax
	movl	8(%esp), %edi
	movl	%eax, 80(%esi)
	movzbl	2(%ebx), %ecx
	movl	(%esi,%edi,4), %ebx
	movl	(%esi,%edx,4), %edx
	xorl	%ebx, (%edx,%ecx,4)
	movl	%eax, %ebx
	jmp	.L2
.L203:
	movzbl	4(%esp), %eax
	movl	8(%esp), %edx
	movl	%edi, %ebx
	movl	(%esi,%edx,4), %edx
	xorl	%edx, (%esi,%eax,4)
	jmp	.L2
.L202:
	movzbl	4(%esp), %ecx
	leal	3(%ebx), %eax
	leal	4(%ebx), %edx
	movl	8(%esp), %edi
	movl	%eax, 80(%esi)
	movzbl	2(%ebx), %eax
	movl	%edx, 80(%esi)
	movzbl	3(%ebx), %ebx
	movl	(%esi,%edi,4), %edi
	movl	(%esi,%ecx,4), %ecx
	movl	(%edi,%eax,4), %eax
	orl	%eax, (%ecx,%ebx,4)
	movl	%edx, %ebx
	jmp	.L2
.L201:
	leal	3(%ebx), %eax
	movl	8(%esp), %edi
	movzbl	4(%esp), %edx
	movl	%eax, 80(%esi)
	movzbl	2(%ebx), %ebx
	movl	(%esi,%edi,4), %ecx
	movl	(%ecx,%ebx,4), %ecx
	movl	%eax, %ebx
	orl	%ecx, (%esi,%edx,4)
	jmp	.L2
.L200:
	movzbl	4(%esp), %edx
	leal	3(%ebx), %eax
	movl	8(%esp), %edi
	movl	%eax, 80(%esi)
	movzbl	2(%ebx), %ecx
	movl	(%esi,%edi,4), %ebx
	movl	(%esi,%edx,4), %edx
	orl	%ebx, (%edx,%ecx,4)
	movl	%eax, %ebx
	jmp	.L2
.L199:
	movzbl	4(%esp), %eax
	movl	8(%esp), %edx
	movl	%edi, %ebx
	movl	(%esi,%edx,4), %edx
	orl	%edx, (%esi,%eax,4)
	jmp	.L2
.L198:
	movzbl	4(%esp), %ecx
	leal	3(%ebx), %eax
	leal	4(%ebx), %edx
	movl	8(%esp), %edi
	movl	%eax, 80(%esi)
	movzbl	2(%ebx), %eax
	movl	%edx, 80(%esi)
	movzbl	3(%ebx), %ebx
	movl	(%esi,%edi,4), %edi
	movl	(%esi,%ecx,4), %ecx
	movl	(%edi,%eax,4), %eax
	andl	%eax, (%ecx,%ebx,4)
	movl	%edx, %ebx
	jmp	.L2
.L197:
	leal	3(%ebx), %eax
	movl	8(%esp), %edi
	movzbl	4(%esp), %edx
	movl	%eax, 80(%esi)
	movzbl	2(%ebx), %ebx
	movl	(%esi,%edi,4), %ecx
	movl	(%ecx,%ebx,4), %ecx
	movl	%eax, %ebx
	andl	%ecx, (%esi,%edx,4)
	jmp	.L2
.L196:
	movzbl	4(%esp), %edx
	leal	3(%ebx), %eax
	movl	8(%esp), %edi
	movl	%eax, 80(%esi)
	movzbl	2(%ebx), %ecx
	movl	(%esi,%edi,4), %ebx
	movl	(%esi,%edx,4), %edx
	andl	%ebx, (%edx,%ecx,4)
	movl	%eax, %ebx
	jmp	.L2
.L195:
	movzbl	4(%esp), %eax
	movl	8(%esp), %edx
	movl	%edi, %ebx
	movl	(%esi,%edx,4), %edx
	andl	%edx, (%esi,%eax,4)
	jmp	.L2
.L194:
	vmovss	68(%esi), %xmm2
	vmulss	%xmm2, %xmm2, %xmm3
	vmovss	64(%esi), %xmm0
	vmovss	72(%esi), %xmm1
	vfmadd231ss	%xmm0, %xmm0, %xmm3
	vfmadd231ss	%xmm1, %xmm1, %xmm3
	vsqrtss	%xmm3, %xmm4, %xmm4
	vucomiss	%xmm4, %xmm4
	jp	.L391
.L318:
	vmovss	.LC3, %xmm3
	movl	80(%esi), %eax
	vdivss	%xmm4, %xmm3, %xmm3
	leal	-1(%eax), %ebx
	movl	%ebx, 80(%esi)
	vmulss	%xmm3, %xmm0, %xmm0
	vmulss	%xmm3, %xmm2, %xmm2
	vmulss	%xmm3, %xmm1, %xmm1
	vmovss	%xmm0, 64(%esi)
	vmovss	%xmm2, 68(%esi)
	vmovss	%xmm1, 72(%esi)
	jmp	.L2
.L193:
	leal	3(%ebx), %eax
	vmovss	68(%esi), %xmm1
	vmulss	%xmm1, %xmm1, %xmm1
	vmovss	64(%esi), %xmm0
	movl	%eax, 80(%esi)
	movzbl	4(%esp), %eax
	vmovss	72(%esi), %xmm2
	movzbl	2(%ebx), %edx
	vfmadd231ss	%xmm0, %xmm0, %xmm1
	vfmadd132ss	%xmm2, %xmm1, %xmm2
	vsqrtss	%xmm2, %xmm3, %xmm3
	vucomiss	%xmm3, %xmm3
	movl	(%esi,%eax,4), %eax
	leal	(%eax,%edx,4), %ebx
	jp	.L392
.L316:
	vmovss	.LC3, %xmm1
	vdivss	%xmm3, %xmm1, %xmm1
	vmulss	%xmm1, %xmm0, %xmm0
	vmovss	%xmm0, (%ebx)
	vmulss	68(%esi), %xmm1, %xmm0
	vmovss	%xmm0, 4(%ebx)
	vmulss	72(%esi), %xmm1, %xmm1
	vmovss	%xmm1, 8(%ebx)
	movl	80(%esi), %ebx
	jmp	.L2
.L192:
	leal	3(%ebx), %eax
	movl	%eax, 80(%esi)
	movl	8(%esp), %eax
	movzbl	2(%ebx), %edx
	movl	(%esi,%eax,4), %eax
	leal	(%eax,%edx,4), %ebx
	vmovss	4(%ebx), %xmm0
	vmulss	%xmm0, %xmm0, %xmm0
	vmovss	(%ebx), %xmm1
	vmovss	8(%ebx), %xmm2
	vfmadd231ss	%xmm1, %xmm1, %xmm0
	vfmadd132ss	%xmm2, %xmm0, %xmm2
	vsqrtss	%xmm2, %xmm3, %xmm3
	vucomiss	%xmm3, %xmm3
	jp	.L393
.L314:
	vmovss	.LC3, %xmm0
	vdivss	%xmm3, %xmm0, %xmm0
	vmulss	%xmm0, %xmm1, %xmm1
	vmovss	%xmm1, 64(%esi)
	vmulss	4(%ebx), %xmm0, %xmm1
	vmovss	%xmm1, 68(%esi)
	vmulss	8(%ebx), %xmm0, %xmm0
	movl	80(%esi), %ebx
	vmovss	%xmm0, 72(%esi)
	jmp	.L2
.L191:
	leal	3(%ebx), %eax
	movl	8(%esp), %edi
	leal	4(%ebx), %edx
	movl	%eax, 80(%esi)
	movzbl	2(%ebx), %eax
	movl	%edx, 80(%esi)
	movl	(%esi,%edi,4), %edx
	leal	(%edx,%eax,4), %edi
	movzbl	4(%esp), %eax
	movzbl	3(%ebx), %edx
	vmovss	4(%edi), %xmm0
	vmulss	%xmm0, %xmm0, %xmm0
	vmovss	(%edi), %xmm1
	vmovss	8(%edi), %xmm2
	movl	(%esi,%eax,4), %eax
	vfmadd231ss	%xmm1, %xmm1, %xmm0
	vfmadd132ss	%xmm2, %xmm0, %xmm2
	vsqrtss	%xmm2, %xmm3, %xmm3
	vucomiss	%xmm3, %xmm3
	leal	(%eax,%edx,4), %ebx
	jp	.L394
.L312:
	vmovss	.LC3, %xmm0
	vdivss	%xmm3, %xmm0, %xmm0
	vmulss	%xmm0, %xmm1, %xmm1
	vmovss	%xmm1, (%ebx)
	vmulss	4(%edi), %xmm0, %xmm1
	vmovss	%xmm1, 4(%ebx)
	vmulss	8(%edi), %xmm0, %xmm0
	vmovss	%xmm0, 8(%ebx)
	movl	80(%esi), %ebx
	jmp	.L2
.L190:
	leal	3(%ebx), %eax
	movl	%eax, 80(%esi)
	movzbl	4(%esp), %eax
	movzbl	2(%ebx), %edx
	movl	(%esi,%eax,4), %eax
	leal	(%eax,%edx,4), %ebx
	vmovss	4(%ebx), %xmm1
	vmulss	%xmm1, %xmm1, %xmm3
	vmovss	(%ebx), %xmm2
	vmovss	8(%ebx), %xmm4
	vfmadd231ss	%xmm2, %xmm2, %xmm3
	vfmadd231ss	%xmm4, %xmm4, %xmm3
	vsqrtss	%xmm3, %xmm0, %xmm0
	vucomiss	%xmm0, %xmm0
	jp	.L395
.L310:
	vmovss	.LC3, %xmm3
	vdivss	%xmm0, %xmm3, %xmm0
	vmulss	%xmm0, %xmm2, %xmm2
	vmulss	%xmm0, %xmm1, %xmm1
	vmulss	%xmm0, %xmm4, %xmm0
	vmovss	%xmm2, (%ebx)
	vmovss	%xmm1, 4(%ebx)
	vmovss	%xmm0, 8(%ebx)
	movl	80(%esi), %ebx
	jmp	.L2
.L189:
	vmovss	68(%esi), %xmm2
	vmulss	%xmm2, %xmm2, %xmm2
	vmovss	64(%esi), %xmm1
	vmovss	72(%esi), %xmm0
	vfmadd132ss	%xmm1, %xmm2, %xmm1
	vfmadd132ss	%xmm0, %xmm1, %xmm0
	vsqrtss	%xmm0, %xmm1, %xmm1
	vucomiss	%xmm1, %xmm1
	jp	.L396
.L308:
	movl	80(%esi), %eax
	vmovss	%xmm1, 76(%esi)
	leal	-1(%eax), %ebx
	movl	%ebx, 80(%esi)
	jmp	.L2
.L188:
	leal	3(%ebx), %eax
	vmovss	68(%esi), %xmm2
	vmulss	%xmm2, %xmm2, %xmm2
	vmovss	64(%esi), %xmm1
	movl	%eax, 80(%esi)
	movzbl	4(%esp), %eax
	vmovss	72(%esi), %xmm0
	movzbl	2(%ebx), %edx
	vfmadd132ss	%xmm1, %xmm2, %xmm1
	vfmadd132ss	%xmm0, %xmm1, %xmm0
	vsqrtss	%xmm0, %xmm1, %xmm1
	vucomiss	%xmm1, %xmm1
	movl	(%esi,%eax,4), %eax
	leal	(%eax,%edx,4), %ebx
	jp	.L397
.L306:
	vmovss	%xmm1, (%ebx)
	movl	80(%esi), %ebx
	jmp	.L2
.L187:
	vmovss	68(%esi), %xmm2
	vmulss	%xmm2, %xmm2, %xmm2
	vmovss	64(%esi), %xmm1
	vmovss	72(%esi), %xmm0
	vfmadd132ss	%xmm1, %xmm2, %xmm1
	vfmadd132ss	%xmm0, %xmm1, %xmm0
	vsqrtss	%xmm0, %xmm1, %xmm1
	vucomiss	%xmm1, %xmm1
	jp	.L398
.L304:
	movzbl	4(%esp), %eax
	vmovss	%xmm1, (%esi,%eax,4)
	movl	80(%esi), %ebx
	jmp	.L2
.L186:
	leal	3(%ebx), %eax
	movl	8(%esp), %edi
	leal	4(%ebx), %edx
	movl	%eax, 80(%esi)
	movzbl	2(%ebx), %eax
	movl	%edx, 80(%esi)
	movl	(%esi,%edi,4), %edx
	movzbl	3(%ebx), %ecx
	leal	(%edx,%eax,4), %eax
	movzbl	4(%esp), %edx
	vmovss	4(%eax), %xmm2
	vmulss	%xmm2, %xmm2, %xmm2
	vmovss	(%eax), %xmm1
	vmovss	8(%eax), %xmm0
	movl	(%esi,%edx,4), %edx
	vfmadd132ss	%xmm1, %xmm2, %xmm1
	vfmadd132ss	%xmm0, %xmm1, %xmm0
	vsqrtss	%xmm0, %xmm1, %xmm1
	vucomiss	%xmm1, %xmm1
	leal	(%edx,%ecx,4), %ebx
	jp	.L399
.L302:
	vmovss	%xmm1, (%ebx)
	movl	80(%esi), %ebx
	jmp	.L2
.L185:
	leal	3(%ebx), %eax
	movl	%eax, 80(%esi)
	movl	8(%esp), %eax
	movzbl	2(%ebx), %edx
	movl	(%esi,%eax,4), %eax
	leal	(%eax,%edx,4), %eax
	vmovss	4(%eax), %xmm2
	vmulss	%xmm2, %xmm2, %xmm2
	vmovss	(%eax), %xmm1
	vmovss	8(%eax), %xmm0
	vfmadd132ss	%xmm1, %xmm2, %xmm1
	vfmadd132ss	%xmm0, %xmm1, %xmm0
	vsqrtss	%xmm0, %xmm1, %xmm1
	vucomiss	%xmm1, %xmm1
	jp	.L400
.L300:
	movzbl	4(%esp), %eax
	vmovss	%xmm1, (%esi,%eax,4)
	movl	80(%esi), %ebx
	jmp	.L2
.L184:
	leal	3(%ebx), %eax
	movl	8(%esp), %edi
	leal	4(%ebx), %edx
	vmovss	68(%esi), %xmm0
	movl	%eax, 80(%esi)
	movzbl	2(%ebx), %eax
	movl	%edx, 80(%esi)
	movl	(%esi,%edi,4), %ecx
	movzbl	3(%ebx), %ebx
	vmovss	64(%esi), %xmm5
	vmovss	72(%esi), %xmm6
	leal	(%ecx,%eax,4), %eax
	movzbl	4(%esp), %ecx
	vmulss	4(%eax), %xmm0, %xmm0
	movl	(%esi,%ecx,4), %ecx
	vfmadd231ss	(%eax), %xmm5, %xmm0
	vfmadd231ss	8(%eax), %xmm6, %xmm0
	vmovss	%xmm0, (%ecx,%ebx,4)
	movl	%edx, %ebx
	jmp	.L2
.L183:
	leal	3(%ebx), %edx
	movl	8(%esp), %eax
	vmovss	68(%esi), %xmm0
	movl	%edx, 80(%esi)
	movzbl	2(%ebx), %ecx
	movl	%edx, %ebx
	movl	(%esi,%eax,4), %eax
	vmovss	64(%esi), %xmm7
	vmovss	72(%esi), %xmm4
	leal	(%eax,%ecx,4), %eax
	movzbl	4(%esp), %ecx
	vmulss	4(%eax), %xmm0, %xmm0
	vfmadd231ss	(%eax), %xmm7, %xmm0
	vfmadd231ss	8(%eax), %xmm4, %xmm0
	vmovss	%xmm0, (%esi,%ecx,4)
	jmp	.L2
.L182:
	leal	3(%ebx), %eax
	movl	8(%esp), %edi
	leal	4(%ebx), %ecx
	movl	%eax, 80(%esi)
	movzbl	2(%ebx), %eax
	movl	%ecx, 80(%esi)
	movl	(%esi,%edi,4), %edx
	movzbl	3(%ebx), %ebx
	leal	(%edx,%eax,4), %eax
	movzbl	4(%esp), %edx
	movl	(%esi,%edx,4), %edx
	leal	(%edx,%ebx,4), %edx
	movl	%ecx, %ebx
	vmovss	4(%edx), %xmm0
	vmulss	4(%eax), %xmm0, %xmm0
	vmovss	(%edx), %xmm5
	vmovss	8(%edx), %xmm6
	vfmadd231ss	(%eax), %xmm5, %xmm0
	vfmadd231ss	8(%eax), %xmm6, %xmm0
	vmovss	%xmm0, 76(%esi)
	jmp	.L2
.L181:
	leal	3(%ebx), %eax
	movl	8(%esp), %edi
	leal	4(%ebx), %ecx
	movl	%eax, 80(%esi)
	movzbl	2(%ebx), %eax
	movl	%ecx, 80(%esi)
	movl	(%esi,%edi,4), %edx
	movzbl	3(%ebx), %ebx
	leal	(%edx,%eax,4), %eax
	movzbl	4(%esp), %edx
	vmovss	8(%eax), %xmm0
	vmulss	68(%esi), %xmm0, %xmm0
	vmovss	4(%eax), %xmm5
	movl	(%esi,%edx,4), %edx
	leal	(%edx,%ebx,4), %edx
	movl	%ecx, %ebx
	vfmsub231ss	72(%esi), %xmm5, %xmm0
	vmovss	%xmm0, (%edx)
	vmovss	(%eax), %xmm0
	vmulss	72(%esi), %xmm0, %xmm0
	vmovss	8(%eax), %xmm6
	vfmsub231ss	64(%esi), %xmm6, %xmm0
	vmovss	%xmm0, 4(%edx)
	vmovss	4(%eax), %xmm0
	vmulss	64(%esi), %xmm0, %xmm0
	vmovss	(%eax), %xmm7
	vfmsub231ss	68(%esi), %xmm7, %xmm0
	vmovss	%xmm0, 8(%edx)
	jmp	.L2
.L180:
	leal	3(%ebx), %eax
	movl	8(%esp), %edi
	leal	4(%ebx), %ecx
	vmovss	72(%esi), %xmm0
	movl	%eax, 80(%esi)
	movzbl	2(%ebx), %eax
	movl	%ecx, 80(%esi)
	movl	(%esi,%edi,4), %edx
	movzbl	3(%ebx), %ebx
	vmovss	68(%esi), %xmm5
	leal	(%edx,%eax,4), %eax
	movzbl	4(%esp), %edx
	vmulss	4(%eax), %xmm0, %xmm0
	movl	(%esi,%edx,4), %edx
	leal	(%edx,%ebx,4), %edx
	movl	%ecx, %ebx
	vfmsub231ss	8(%eax), %xmm5, %xmm0
	vmovss	%xmm0, (%edx)
	vmovss	64(%esi), %xmm0
	vmulss	8(%eax), %xmm0, %xmm0
	vmovss	72(%esi), %xmm6
	vfmsub231ss	(%eax), %xmm6, %xmm0
	vmovss	%xmm0, 4(%edx)
	vmovss	68(%esi), %xmm0
	vmulss	(%eax), %xmm0, %xmm0
	vmovss	64(%esi), %xmm7
	vfmsub231ss	4(%eax), %xmm7, %xmm0
	vmovss	%xmm0, 8(%edx)
	jmp	.L2
.L179:
	leal	3(%ebx), %eax
	movl	8(%esp), %edi
	leal	4(%ebx), %ecx
	movl	%eax, 80(%esi)
	movzbl	2(%ebx), %eax
	movl	%ecx, 80(%esi)
	movl	(%esi,%edi,4), %edx
	movzbl	3(%ebx), %ebx
	leal	(%edx,%eax,4), %edx
	movzbl	4(%esp), %eax
	vmovss	8(%edx), %xmm0
	vmovss	4(%edx), %xmm5
	movl	(%esi,%eax,4), %eax
	leal	(%eax,%ebx,4), %eax
	movl	%ecx, %ebx
	vmulss	4(%eax), %xmm0, %xmm0
	vfmsub231ss	8(%eax), %xmm5, %xmm0
	vmovss	%xmm0, 64(%esi)
	vmovss	(%edx), %xmm0
	vmulss	8(%eax), %xmm0, %xmm0
	vmovss	8(%edx), %xmm6
	vfmsub231ss	(%eax), %xmm6, %xmm0
	vmovss	%xmm0, 68(%esi)
	vmovss	4(%edx), %xmm0
	vmulss	(%eax), %xmm0, %xmm0
	vmovss	(%edx), %xmm7
	vfmsub231ss	4(%eax), %xmm7, %xmm0
	vmovss	%xmm0, 72(%esi)
	jmp	.L2
.L178:
	leal	3(%ebx), %eax
	movl	8(%esp), %edi
	leal	4(%ebx), %ecx
	vmovss	64(%esi), %xmm0
	movl	%eax, 80(%esi)
	movzbl	2(%ebx), %eax
	movl	%ecx, 80(%esi)
	movl	(%esi,%edi,4), %edx
	movzbl	3(%ebx), %ebx
	leal	(%edx,%eax,4), %edx
	movzbl	4(%esp), %eax
	vsubss	(%edx), %xmm0, %xmm0
	movl	(%esi,%eax,4), %eax
	leal	(%eax,%ebx,4), %eax
	movl	%ecx, %ebx
	vmovss	%xmm0, (%eax)
	vmovss	68(%esi), %xmm0
	vsubss	4(%edx), %xmm0, %xmm0
	vmovss	%xmm0, 4(%eax)
	vmovss	72(%esi), %xmm0
	vsubss	8(%edx), %xmm0, %xmm0
	vmovss	%xmm0, 8(%eax)
	jmp	.L2
.L177:
	leal	3(%ebx), %eax
	movl	8(%esp), %edi
	leal	4(%ebx), %ecx
	movl	%eax, 80(%esi)
	movzbl	2(%ebx), %eax
	movl	%ecx, 80(%esi)
	movl	(%esi,%edi,4), %edx
	movzbl	3(%ebx), %ebx
	leal	(%edx,%eax,4), %edx
	movzbl	4(%esp), %eax
	vmovss	(%edx), %xmm0
	vsubss	64(%esi), %xmm0, %xmm0
	movl	(%esi,%eax,4), %eax
	leal	(%eax,%ebx,4), %eax
	movl	%ecx, %ebx
	vmovss	%xmm0, (%eax)
	vmovss	4(%edx), %xmm0
	vsubss	68(%esi), %xmm0, %xmm0
	vmovss	%xmm0, 4(%eax)
	vmovss	8(%edx), %xmm0
	vsubss	72(%esi), %xmm0, %xmm0
	vmovss	%xmm0, 8(%eax)
	jmp	.L2
.L176:
	leal	3(%ebx), %eax
	movl	8(%esp), %edi
	leal	4(%ebx), %ecx
	movl	%eax, 80(%esi)
	movzbl	2(%ebx), %eax
	movl	%ecx, 80(%esi)
	movl	(%esi,%edi,4), %edx
	movzbl	3(%ebx), %ebx
	leal	(%edx,%eax,4), %eax
	movzbl	4(%esp), %edx
	movl	(%esi,%edx,4), %edx
	leal	(%edx,%ebx,4), %edx
	movl	%ecx, %ebx
	vmovss	(%edx), %xmm0
	vsubss	(%eax), %xmm0, %xmm0
	vmovss	%xmm0, 64(%esi)
	vmovss	4(%edx), %xmm0
	vsubss	4(%eax), %xmm0, %xmm0
	vmovss	%xmm0, 68(%esi)
	vmovss	8(%edx), %xmm0
	vsubss	8(%eax), %xmm0, %xmm0
	vmovss	%xmm0, 72(%esi)
	jmp	.L2
.L175:
	movzbl	4(%esp), %eax
	leal	3(%ebx), %edx
	movl	%edx, 80(%esi)
	movzbl	2(%ebx), %ecx
	movl	%edx, %ebx
	movl	(%esi,%eax,4), %eax
	leal	(%eax,%ecx,4), %eax
	vmovss	(%eax), %xmm0
	vsubss	64(%esi), %xmm0, %xmm0
	vmovss	%xmm0, (%eax)
	vmovss	4(%eax), %xmm0
	vsubss	68(%esi), %xmm0, %xmm0
	vmovss	%xmm0, 4(%eax)
	vmovss	8(%eax), %xmm0
	vsubss	72(%esi), %xmm0, %xmm0
	vmovss	%xmm0, 8(%eax)
	jmp	.L2
.L174:
	leal	3(%ebx), %edx
	movl	8(%esp), %eax
	vmovss	64(%esi), %xmm0
	movl	%edx, 80(%esi)
	movzbl	2(%ebx), %ecx
	movl	%edx, %ebx
	movl	(%esi,%eax,4), %eax
	leal	(%eax,%ecx,4), %eax
	vsubss	(%eax), %xmm0, %xmm0
	vmovss	%xmm0, 64(%esi)
	vmovss	68(%esi), %xmm0
	vsubss	4(%eax), %xmm0, %xmm0
	vmovss	%xmm0, 68(%esi)
	vmovss	72(%esi), %xmm0
	vsubss	8(%eax), %xmm0, %xmm0
	vmovss	%xmm0, 72(%esi)
	jmp	.L2
.L173:
	leal	3(%ebx), %eax
	movl	8(%esp), %edi
	leal	4(%ebx), %ecx
	movl	%eax, 80(%esi)
	movzbl	2(%ebx), %eax
	movl	%ecx, 80(%esi)
	movl	(%esi,%edi,4), %edx
	movzbl	3(%ebx), %ebx
	leal	(%edx,%eax,4), %edx
	movzbl	4(%esp), %eax
	movl	(%esi,%eax,4), %eax
	leal	(%eax,%ebx,4), %eax
	movl	%ecx, %ebx
	vmovss	(%eax), %xmm0
	vsubss	(%edx), %xmm0, %xmm0
	vmovss	%xmm0, (%eax)
	vmovss	4(%eax), %xmm0
	vsubss	4(%edx), %xmm0, %xmm0
	vmovss	%xmm0, 4(%eax)
	vmovss	8(%eax), %xmm0
	vsubss	8(%edx), %xmm0, %xmm0
	vmovss	%xmm0, 8(%eax)
	jmp	.L2
.L172:
	leal	3(%ebx), %eax
	movl	8(%esp), %edi
	leal	4(%ebx), %ecx
	movl	%eax, 80(%esi)
	movzbl	2(%ebx), %eax
	movl	%ecx, 80(%esi)
	movl	(%esi,%edi,4), %edx
	movzbl	3(%ebx), %ebx
	leal	(%edx,%eax,4), %edx
	movzbl	4(%esp), %eax
	vmovss	(%edx), %xmm0
	vaddss	64(%esi), %xmm0, %xmm0
	movl	(%esi,%eax,4), %eax
	leal	(%eax,%ebx,4), %eax
	movl	%ecx, %ebx
	vmovss	%xmm0, (%eax)
	vmovss	4(%edx), %xmm0
	vaddss	68(%esi), %xmm0, %xmm0
	vmovss	%xmm0, 4(%eax)
	vmovss	8(%edx), %xmm0
	vaddss	72(%esi), %xmm0, %xmm0
	vmovss	%xmm0, 8(%eax)
	jmp	.L2
.L171:
	leal	3(%ebx), %eax
	movl	8(%esp), %edi
	leal	4(%ebx), %ecx
	movl	%eax, 80(%esi)
	movzbl	2(%ebx), %eax
	movl	%ecx, 80(%esi)
	movl	(%esi,%edi,4), %edx
	movzbl	3(%ebx), %ebx
	leal	(%edx,%eax,4), %eax
	movzbl	4(%esp), %edx
	movl	(%esi,%edx,4), %edx
	leal	(%edx,%ebx,4), %edx
	movl	%ecx, %ebx
	vmovss	(%edx), %xmm0
	vaddss	(%eax), %xmm0, %xmm0
	vmovss	%xmm0, 64(%esi)
	vmovss	4(%edx), %xmm0
	vaddss	4(%eax), %xmm0, %xmm0
	vmovss	%xmm0, 68(%esi)
	vmovss	8(%edx), %xmm0
	vaddss	8(%eax), %xmm0, %xmm0
	vmovss	%xmm0, 72(%esi)
	jmp	.L2
.L170:
	movzbl	4(%esp), %eax
	leal	3(%ebx), %edx
	movl	%edx, 80(%esi)
	movzbl	2(%ebx), %ecx
	movl	%edx, %ebx
	movl	(%esi,%eax,4), %eax
	leal	(%eax,%ecx,4), %eax
	vmovss	(%eax), %xmm0
	vaddss	64(%esi), %xmm0, %xmm0
	vmovss	%xmm0, (%eax)
	vmovss	4(%eax), %xmm0
	vaddss	68(%esi), %xmm0, %xmm0
	vmovss	%xmm0, 4(%eax)
	vmovss	8(%eax), %xmm0
	vaddss	72(%esi), %xmm0, %xmm0
	vmovss	%xmm0, 8(%eax)
	jmp	.L2
.L169:
	leal	3(%ebx), %edx
	movl	8(%esp), %eax
	vmovss	64(%esi), %xmm0
	movl	%edx, 80(%esi)
	movzbl	2(%ebx), %ecx
	movl	%edx, %ebx
	movl	(%esi,%eax,4), %eax
	leal	(%eax,%ecx,4), %eax
	vaddss	(%eax), %xmm0, %xmm0
	vmovss	%xmm0, 64(%esi)
	vmovss	68(%esi), %xmm0
	vaddss	4(%eax), %xmm0, %xmm0
	vmovss	%xmm0, 68(%esi)
	vmovss	72(%esi), %xmm0
	vaddss	8(%eax), %xmm0, %xmm0
	vmovss	%xmm0, 72(%esi)
	jmp	.L2
.L168:
	leal	3(%ebx), %eax
	movl	8(%esp), %edi
	leal	4(%ebx), %ecx
	movl	%eax, 80(%esi)
	movzbl	2(%ebx), %eax
	movl	%ecx, 80(%esi)
	movl	(%esi,%edi,4), %edx
	movzbl	3(%ebx), %ebx
	leal	(%edx,%eax,4), %edx
	movzbl	4(%esp), %eax
	movl	(%esi,%eax,4), %eax
	leal	(%eax,%ebx,4), %eax
	movl	%ecx, %ebx
	vmovss	(%eax), %xmm0
	vaddss	(%edx), %xmm0, %xmm0
	vmovss	%xmm0, (%eax)
	vmovss	4(%eax), %xmm0
	vaddss	4(%edx), %xmm0, %xmm0
	vmovss	%xmm0, 4(%eax)
	vmovss	8(%eax), %xmm0
	vaddss	8(%edx), %xmm0, %xmm0
	vmovss	%xmm0, 8(%eax)
	jmp	.L2
.L167:
	vmovss	76(%esi), %xmm0
	movl	12(%esp), %eax
	vmulss	64(%esi), %xmm0, %xmm1
	movl	%eax, 80(%esi)
	movl	%eax, %ebx
	vmovss	%xmm1, 64(%esi)
	vmulss	68(%esi), %xmm0, %xmm1
	vmulss	72(%esi), %xmm0, %xmm0
	vmovss	%xmm1, 68(%esi)
	vmovss	%xmm0, 72(%esi)
	jmp	.L2
.L166:
	leal	3(%ebx), %eax
	movl	8(%esp), %edi
	movl	%eax, 80(%esi)
	movzbl	2(%ebx), %ecx
	movl	%eax, %ebx
	movl	(%esi,%edi,4), %edx
	vmovss	(%edx,%ecx,4), %xmm0
	vmulss	64(%esi), %xmm0, %xmm1
	vmovss	%xmm1, 64(%esi)
	vmulss	68(%esi), %xmm0, %xmm1
	vmulss	72(%esi), %xmm0, %xmm0
	vmovss	%xmm1, 68(%esi)
	vmovss	%xmm0, 72(%esi)
	jmp	.L2
.L165:
	movl	8(%esp), %eax
	movl	%edi, %ebx
	vmovss	(%esi,%eax,4), %xmm0
	vmulss	64(%esi), %xmm0, %xmm1
	vmovss	%xmm1, 64(%esi)
	vmulss	68(%esi), %xmm0, %xmm1
	vmulss	72(%esi), %xmm0, %xmm0
	vmovss	%xmm1, 68(%esi)
	vmovss	%xmm0, 72(%esi)
	jmp	.L2
.L164:
	movzbl	4(%esp), %eax
	leal	3(%ebx), %edx
	movl	%edx, 80(%esi)
	movzbl	2(%ebx), %ecx
	movl	%edx, %ebx
	movl	(%esi,%eax,4), %eax
	leal	(%eax,%ecx,4), %eax
	vmovss	(%eax), %xmm0
	vmulss	76(%esi), %xmm0, %xmm0
	vmovss	%xmm0, (%eax)
	vmovss	4(%eax), %xmm0
	vmulss	76(%esi), %xmm0, %xmm0
	vmovss	%xmm0, 4(%eax)
	vmovss	8(%eax), %xmm0
	vmulss	76(%esi), %xmm0, %xmm0
	vmovss	%xmm0, 8(%eax)
	jmp	.L2
.L163:
	leal	3(%ebx), %eax
	movl	8(%esp), %edi
	leal	4(%ebx), %edx
	movl	%eax, 80(%esi)
	movzbl	2(%ebx), %eax
	movl	%edx, 80(%esi)
	movl	(%esi,%edi,4), %ecx
	vmovss	(%ecx,%eax,4), %xmm0
	movzbl	4(%esp), %eax
	movzbl	3(%ebx), %ecx
	movl	%edx, %ebx
	movl	(%esi,%eax,4), %eax
	leal	(%eax,%ecx,4), %eax
	vmulss	(%eax), %xmm0, %xmm1
	vmovss	%xmm1, (%eax)
	vmulss	4(%eax), %xmm0, %xmm1
	vmulss	8(%eax), %xmm0, %xmm0
	vmovss	%xmm1, 4(%eax)
	vmovss	%xmm0, 8(%eax)
	jmp	.L2
.L162:
	movzbl	4(%esp), %eax
	leal	3(%ebx), %ecx
	movl	8(%esp), %edi
	movl	%ecx, 80(%esi)
	movzbl	2(%ebx), %edx
	movl	%ecx, %ebx
	movl	(%esi,%eax,4), %eax
	leal	(%eax,%edx,4), %eax
	leal	(%esi,%edi,4), %edx
	vmovss	(%eax), %xmm0
	vmulss	(%edx), %xmm0, %xmm0
	vmovss	%xmm0, (%eax)
	vmovss	4(%eax), %xmm0
	vmulss	(%edx), %xmm0, %xmm0
	vmovss	%xmm0, 4(%eax)
	vmovss	8(%eax), %xmm0
	vmulss	(%edx), %xmm0, %xmm0
	vmovss	%xmm0, 8(%eax)
	jmp	.L2
.L161:
	vmovss	64(%esi), %xmm0
	movl	12(%esp), %eax
	vxorps	.LC2, %xmm0, %xmm0
	movl	%eax, 80(%esi)
	movl	%eax, %ebx
	vmovss	%xmm0, 64(%esi)
	vmovss	68(%esi), %xmm0
	vxorps	.LC2, %xmm0, %xmm0
	vmovss	%xmm0, 68(%esi)
	vmovss	72(%esi), %xmm0
	vxorps	.LC2, %xmm0, %xmm0
	vmovss	%xmm0, 72(%esi)
	jmp	.L2
.L160:
	movzbl	4(%esp), %eax
	leal	3(%ebx), %edx
	vmovss	64(%esi), %xmm0
	movl	%edx, 80(%esi)
	movzbl	2(%ebx), %ecx
	movl	%edx, %ebx
	vxorps	.LC2, %xmm0, %xmm0
	movl	(%esi,%eax,4), %eax
	leal	(%eax,%ecx,4), %eax
	vmovss	%xmm0, (%eax)
	vmovss	68(%esi), %xmm0
	vxorps	.LC2, %xmm0, %xmm0
	vmovss	%xmm0, 4(%eax)
	vmovss	72(%esi), %xmm0
	vxorps	.LC2, %xmm0, %xmm0
	vmovss	%xmm0, 8(%eax)
	jmp	.L2
.L159:
	leal	3(%ebx), %edx
	movl	8(%esp), %eax
	movl	%edx, 80(%esi)
	movzbl	2(%ebx), %ecx
	movl	%edx, %ebx
	movl	(%esi,%eax,4), %eax
	leal	(%eax,%ecx,4), %eax
	vmovss	(%eax), %xmm0
	vxorps	.LC2, %xmm0, %xmm0
	vmovss	%xmm0, 64(%esi)
	vmovss	4(%eax), %xmm0
	vxorps	.LC2, %xmm0, %xmm0
	vmovss	%xmm0, 68(%esi)
	vmovss	8(%eax), %xmm0
	vxorps	.LC2, %xmm0, %xmm0
	vmovss	%xmm0, 72(%esi)
	jmp	.L2
.L158:
	leal	3(%ebx), %eax
	movl	8(%esp), %edi
	leal	4(%ebx), %ecx
	movl	%eax, 80(%esi)
	movzbl	2(%ebx), %eax
	movl	%ecx, 80(%esi)
	movl	(%esi,%edi,4), %edx
	movzbl	3(%ebx), %ebx
	leal	(%edx,%eax,4), %edx
	movzbl	4(%esp), %eax
	vmovss	(%edx), %xmm0
	vxorps	.LC2, %xmm0, %xmm0
	movl	(%esi,%eax,4), %eax
	leal	(%eax,%ebx,4), %eax
	movl	%ecx, %ebx
	vmovss	%xmm0, (%eax)
	vmovss	4(%edx), %xmm0
	vxorps	.LC2, %xmm0, %xmm0
	vmovss	%xmm0, 4(%eax)
	vmovss	8(%edx), %xmm0
	vxorps	.LC2, %xmm0, %xmm0
	vmovss	%xmm0, 8(%eax)
	jmp	.L2
.L157:
	movzbl	4(%esp), %eax
	leal	3(%ebx), %edx
	movl	%edx, 80(%esi)
	movzbl	2(%ebx), %ecx
	movl	%edx, %ebx
	movl	(%esi,%eax,4), %eax
	leal	(%eax,%ecx,4), %eax
	vmovss	(%eax), %xmm0
	vxorps	.LC2, %xmm0, %xmm0
	vmovss	%xmm0, (%eax)
	vmovss	4(%eax), %xmm0
	vxorps	.LC2, %xmm0, %xmm0
	vmovss	%xmm0, 4(%eax)
	vmovss	8(%eax), %xmm0
	vxorps	.LC2, %xmm0, %xmm0
	vmovss	%xmm0, 8(%eax)
	jmp	.L2
.L156:
	subl	$12, %esp
	.cfi_def_cfa_offset 60
	leal	3(%ebx), %eax
	leal	4(%ebx), %edi
	movl	20(%esp), %edx
	movl	%eax, 80(%esi)
	movzbl	2(%ebx), %eax
	movl	%edi, 80(%esi)
	movl	(%esi,%edx,4), %edx
	pushl	(%edx,%eax,4)
	.cfi_def_cfa_offset 64
	call	tanf
	addl	$16, %esp
	.cfi_def_cfa_offset 48
	movzbl	4(%esp), %eax
	movzbl	3(%ebx), %edx
	fstps	8(%esp)
	movl	8(%esp), %ecx
	movl	%edi, %ebx
	movl	(%esi,%eax,4), %eax
	movl	%ecx, (%eax,%edx,4)
	jmp	.L2
.L155:
	subl	$12, %esp
	.cfi_def_cfa_offset 60
	leal	3(%ebx), %edi
	movl	20(%esp), %eax
	movl	%edi, 80(%esi)
	movzbl	2(%ebx), %edx
	movl	%edi, %ebx
	movl	(%esi,%eax,4), %eax
	pushl	(%eax,%edx,4)
	.cfi_def_cfa_offset 64
	call	tanf
	addl	$16, %esp
	.cfi_def_cfa_offset 48
	movzbl	4(%esp), %eax
	fstps	8(%esp)
	movl	8(%esp), %edx
	movl	%edx, (%esi,%eax,4)
	jmp	.L2
.L154:
	subl	$12, %esp
	.cfi_def_cfa_offset 60
	leal	3(%ebx), %edi
	movl	20(%esp), %eax
	movl	%edi, 80(%esi)
	pushl	(%esi,%eax,4)
	.cfi_def_cfa_offset 64
	call	tanf
	addl	$16, %esp
	.cfi_def_cfa_offset 48
	movzbl	4(%esp), %eax
	movzbl	2(%ebx), %edx
	fstps	8(%esp)
	movl	8(%esp), %ecx
	movl	%edi, %ebx
	movl	(%esi,%eax,4), %eax
	movl	%ecx, (%eax,%edx,4)
	jmp	.L2
.L153:
	subl	$12, %esp
	.cfi_def_cfa_offset 60
	movl	%edi, %ebx
	movl	20(%esp), %eax
	pushl	(%esi,%eax,4)
	.cfi_def_cfa_offset 64
	call	tanf
	addl	$16, %esp
	.cfi_def_cfa_offset 48
	movzbl	4(%esp), %eax
	fstps	8(%esp)
	movl	8(%esp), %edx
	movl	%edx, (%esi,%eax,4)
	jmp	.L2
.L152:
	subl	$12, %esp
	.cfi_def_cfa_offset 60
	leal	3(%ebx), %eax
	leal	4(%ebx), %edi
	movl	20(%esp), %edx
	movl	%eax, 80(%esi)
	movzbl	2(%ebx), %eax
	movl	%edi, 80(%esi)
	movl	(%esi,%edx,4), %edx
	pushl	(%edx,%eax,4)
	.cfi_def_cfa_offset 64
	call	cosf
	addl	$16, %esp
	.cfi_def_cfa_offset 48
	movzbl	4(%esp), %eax
	movzbl	3(%ebx), %edx
	fstps	8(%esp)
	movl	8(%esp), %ecx
	movl	%edi, %ebx
	movl	(%esi,%eax,4), %eax
	movl	%ecx, (%eax,%edx,4)
	jmp	.L2
.L151:
	subl	$12, %esp
	.cfi_def_cfa_offset 60
	leal	3(%ebx), %edi
	movl	20(%esp), %eax
	movl	%edi, 80(%esi)
	movzbl	2(%ebx), %edx
	movl	%edi, %ebx
	movl	(%esi,%eax,4), %eax
	pushl	(%eax,%edx,4)
	.cfi_def_cfa_offset 64
	call	cosf
	addl	$16, %esp
	.cfi_def_cfa_offset 48
	movzbl	4(%esp), %eax
	fstps	8(%esp)
	movl	8(%esp), %edx
	movl	%edx, (%esi,%eax,4)
	jmp	.L2
.L150:
	subl	$12, %esp
	.cfi_def_cfa_offset 60
	leal	3(%ebx), %edi
	movl	20(%esp), %eax
	movl	%edi, 80(%esi)
	pushl	(%esi,%eax,4)
	.cfi_def_cfa_offset 64
	call	cosf
	addl	$16, %esp
	.cfi_def_cfa_offset 48
	movzbl	4(%esp), %eax
	movzbl	2(%ebx), %edx
	fstps	8(%esp)
	movl	8(%esp), %ecx
	movl	%edi, %ebx
	movl	(%esi,%eax,4), %eax
	movl	%ecx, (%eax,%edx,4)
	jmp	.L2
.L149:
	subl	$12, %esp
	.cfi_def_cfa_offset 60
	movl	%edi, %ebx
	movl	20(%esp), %eax
	pushl	(%esi,%eax,4)
	.cfi_def_cfa_offset 64
	call	cosf
	addl	$16, %esp
	.cfi_def_cfa_offset 48
	movzbl	4(%esp), %eax
	fstps	8(%esp)
	movl	8(%esp), %edx
	movl	%edx, (%esi,%eax,4)
	jmp	.L2
.L148:
	subl	$12, %esp
	.cfi_def_cfa_offset 60
	leal	3(%ebx), %eax
	leal	4(%ebx), %edi
	movl	20(%esp), %edx
	movl	%eax, 80(%esi)
	movzbl	2(%ebx), %eax
	movl	%edi, 80(%esi)
	movl	(%esi,%edx,4), %edx
	pushl	(%edx,%eax,4)
	.cfi_def_cfa_offset 64
	call	sinf
	addl	$16, %esp
	.cfi_def_cfa_offset 48
	movzbl	4(%esp), %eax
	movzbl	3(%ebx), %edx
	fstps	8(%esp)
	movl	8(%esp), %ecx
	movl	%edi, %ebx
	movl	(%esi,%eax,4), %eax
	movl	%ecx, (%eax,%edx,4)
	jmp	.L2
.L147:
	subl	$12, %esp
	.cfi_def_cfa_offset 60
	leal	3(%ebx), %edi
	movl	20(%esp), %eax
	movl	%edi, 80(%esi)
	movzbl	2(%ebx), %edx
	movl	%edi, %ebx
	movl	(%esi,%eax,4), %eax
	pushl	(%eax,%edx,4)
	.cfi_def_cfa_offset 64
	call	sinf
	addl	$16, %esp
	.cfi_def_cfa_offset 48
	movzbl	4(%esp), %eax
	fstps	8(%esp)
	movl	8(%esp), %edx
	movl	%edx, (%esi,%eax,4)
	jmp	.L2
.L146:
	subl	$12, %esp
	.cfi_def_cfa_offset 60
	leal	3(%ebx), %edi
	movl	20(%esp), %eax
	movl	%edi, 80(%esi)
	pushl	(%esi,%eax,4)
	.cfi_def_cfa_offset 64
	call	sinf
	addl	$16, %esp
	.cfi_def_cfa_offset 48
	movzbl	4(%esp), %eax
	movzbl	2(%ebx), %edx
	fstps	8(%esp)
	movl	8(%esp), %ecx
	movl	%edi, %ebx
	movl	(%esi,%eax,4), %eax
	movl	%ecx, (%eax,%edx,4)
	jmp	.L2
.L145:
	subl	$12, %esp
	.cfi_def_cfa_offset 60
	movl	%edi, %ebx
	movl	20(%esp), %eax
	pushl	(%esi,%eax,4)
	.cfi_def_cfa_offset 64
	call	sinf
	addl	$16, %esp
	.cfi_def_cfa_offset 48
	movzbl	4(%esp), %eax
	fstps	8(%esp)
	movl	8(%esp), %edx
	movl	%edx, (%esi,%eax,4)
	jmp	.L2
.L144:
	movzbl	4(%esp), %ebp
.L223:
	leal	1(%edi), %eax
	leal	2(%edi), %edx
	movl	%eax, 80(%esi)
	movzbl	(%edi), %eax
	movl	%edx, 80(%esi)
	movzbl	1(%edi), %ecx
	movl	(%esi,%ebp,4), %edx
	movl	8(%esp), %edi
	leal	(%edx,%ecx,4), %ebx
	movl	(%esi,%edi,4), %edx
	vsqrtss	(%edx,%eax,4), %xmm0, %xmm0
	vucomiss	%xmm0, %xmm0
	jp	.L401
.L298:
	vmovss	%xmm0, (%ebx)
	movl	80(%esi), %ebx
	jmp	.L2
.L143:
	leal	3(%ebx), %eax
	movl	8(%esp), %edi
	movzbl	4(%esp), %ebp
	movl	%eax, 80(%esi)
	movzbl	2(%ebx), %eax
	movl	(%esi,%edi,4), %edx
	vsqrtss	(%edx,%eax,4), %xmm0, %xmm0
	vucomiss	%xmm0, %xmm0
	jp	.L402
.L296:
	vmovss	%xmm0, (%esi,%ebp,4)
	movl	80(%esi), %edi
	jmp	.L223
.L142:
	leal	3(%ebx), %eax
	movl	%eax, 80(%esi)
	movzbl	4(%esp), %eax
	movzbl	2(%ebx), %edx
	movl	(%esi,%eax,4), %eax
	leal	(%eax,%edx,4), %ebx
	movl	8(%esp), %eax
	vsqrtss	(%esi,%eax,4), %xmm0, %xmm0
	vucomiss	%xmm0, %xmm0
	jp	.L403
.L294:
	vmovss	%xmm0, (%ebx)
	movl	80(%esi), %ebx
	jmp	.L2
.L141:
	movl	8(%esp), %eax
	vsqrtss	(%esi,%eax,4), %xmm0, %xmm0
	vucomiss	%xmm0, %xmm0
	jp	.L404
.L292:
	movzbl	4(%esp), %eax
	vmovss	%xmm0, (%esi,%eax,4)
	movl	80(%esi), %ebx
	jmp	.L2
.L140:
	movl	8(%esp), %eax
	movl	%edi, %ebx
	vmovss	(%esi,%eax,4), %xmm0
	movzbl	4(%esp), %eax
	leal	(%esi,%eax,4), %eax
	vucomiss	(%eax), %xmm0
	jbe	.L2
	vmovss	%xmm0, (%eax)
	movl	%edi, %ebx
	jmp	.L2
.L139:
	movl	8(%esp), %eax
	movl	%edi, %ebx
	vmovss	(%esi,%eax,4), %xmm0
	movzbl	4(%esp), %eax
	leal	(%esi,%eax,4), %eax
	vmovss	(%eax), %xmm1
	vucomiss	%xmm0, %xmm1
	jbe	.L2
	vmovss	%xmm0, (%eax)
	movl	%edi, %ebx
	jmp	.L2
.L138:
	movzbl	4(%esp), %ebp
.L224:
	leal	1(%edi), %eax
	leal	2(%edi), %edx
	subl	$8, %esp
	.cfi_def_cfa_offset 56
	movl	%eax, 80(%esi)
	movzbl	(%edi), %eax
	movl	%edx, 80(%esi)
	movzbl	1(%edi), %ecx
	movl	(%esi,%ebp,4), %edx
	movl	16(%esp), %edi
	leal	(%edx,%ecx,4), %ebx
	movl	(%esi,%edi,4), %edx
	pushl	(%edx,%eax,4)
	.cfi_def_cfa_offset 60
	pushl	(%ebx)
	.cfi_def_cfa_offset 64
	call	fmodf
	fstps	20(%esp)
	movl	20(%esp), %eax
	addl	$16, %esp
	.cfi_def_cfa_offset 48
	movl	%eax, (%ebx)
	movl	80(%esi), %ebx
	jmp	.L2
.L137:
	leal	3(%ebx), %eax
	movzbl	4(%esp), %ebp
	subl	$8, %esp
	.cfi_def_cfa_offset 56
	movl	%eax, 80(%esi)
	movl	16(%esp), %eax
	movzbl	2(%ebx), %edx
	leal	(%esi,%ebp,4), %edi
	movl	(%esi,%eax,4), %eax
	pushl	(%eax,%edx,4)
	.cfi_def_cfa_offset 60
	pushl	(%edi)
	.cfi_def_cfa_offset 64
	call	fmodf
	fstps	20(%esp)
	movl	20(%esp), %eax
	addl	$16, %esp
	.cfi_def_cfa_offset 48
	movl	%eax, (%edi)
	movl	80(%esi), %edi
	jmp	.L224
.L136:
	leal	3(%ebx), %eax
	subl	$8, %esp
	.cfi_def_cfa_offset 56
	movl	%eax, 80(%esi)
	movzbl	12(%esp), %eax
	movzbl	2(%ebx), %edx
	movl	(%esi,%eax,4), %eax
	leal	(%eax,%edx,4), %ebx
	movl	16(%esp), %eax
	pushl	(%esi,%eax,4)
	.cfi_def_cfa_offset 60
	pushl	(%ebx)
	.cfi_def_cfa_offset 64
	call	fmodf
	fstps	20(%esp)
	movl	20(%esp), %eax
	addl	$16, %esp
	.cfi_def_cfa_offset 48
	movl	%eax, (%ebx)
	movl	80(%esi), %ebx
	jmp	.L2
.L135:
	movzbl	4(%esp), %eax
	subl	$8, %esp
	.cfi_def_cfa_offset 56
	leal	(%esi,%eax,4), %ebx
	movl	16(%esp), %eax
	pushl	(%esi,%eax,4)
	.cfi_def_cfa_offset 60
	pushl	(%ebx)
	.cfi_def_cfa_offset 64
	call	fmodf
	fstps	20(%esp)
	movl	20(%esp), %eax
	addl	$16, %esp
	.cfi_def_cfa_offset 48
	movl	%eax, (%ebx)
	movl	80(%esi), %ebx
	jmp	.L2
.L134:
	movzbl	4(%esp), %ecx
	leal	3(%ebx), %eax
	leal	4(%ebx), %edx
	movl	8(%esp), %edi
	movl	%eax, 80(%esi)
	movzbl	2(%ebx), %eax
	movl	%edx, 80(%esi)
	movzbl	3(%ebx), %ebx
	movl	(%esi,%ecx,4), %ecx
	leal	(%ecx,%ebx,4), %ecx
	movl	(%esi,%edi,4), %ebx
	vmovss	(%ecx), %xmm0
	vdivss	(%ebx,%eax,4), %xmm0, %xmm0
	movl	%edx, %ebx
	vmovss	%xmm0, (%ecx)
	jmp	.L2
.L133:
	movzbl	4(%esp), %edx
	leal	3(%ebx), %eax
	movl	8(%esp), %edi
	movl	%eax, 80(%esi)
	movzbl	2(%ebx), %ebx
	movl	(%esi,%edi,4), %ecx
	leal	(%esi,%edx,4), %edx
	vmovss	(%edx), %xmm0
	vdivss	(%ecx,%ebx,4), %xmm0, %xmm0
	movl	%eax, %ebx
	vmovss	%xmm0, (%edx)
	jmp	.L2
.L132:
	movzbl	4(%esp), %edx
	leal	3(%ebx), %eax
	movl	8(%esp), %edi
	movl	%eax, 80(%esi)
	movzbl	2(%ebx), %ecx
	movl	%eax, %ebx
	movl	(%esi,%edx,4), %edx
	leal	(%edx,%ecx,4), %edx
	vmovss	(%edx), %xmm0
	vdivss	(%esi,%edi,4), %xmm0, %xmm0
	vmovss	%xmm0, (%edx)
	jmp	.L2
.L131:
	movzbl	4(%esp), %eax
	movl	8(%esp), %edx
	movl	%edi, %ebx
	leal	(%esi,%eax,4), %eax
	vmovss	(%eax), %xmm0
	vdivss	(%esi,%edx,4), %xmm0, %xmm0
	vmovss	%xmm0, (%eax)
	jmp	.L2
.L130:
	movzbl	4(%esp), %ecx
	leal	3(%ebx), %eax
	leal	4(%ebx), %edx
	movl	8(%esp), %edi
	movl	%eax, 80(%esi)
	movzbl	2(%ebx), %eax
	movl	%edx, 80(%esi)
	movzbl	3(%ebx), %ebx
	movl	(%esi,%ecx,4), %ecx
	leal	(%ecx,%ebx,4), %ecx
	movl	(%esi,%edi,4), %ebx
	vmovss	(%ecx), %xmm0
	vmulss	(%ebx,%eax,4), %xmm0, %xmm0
	movl	%edx, %ebx
	vmovss	%xmm0, (%ecx)
	jmp	.L2
.L129:
	movzbl	4(%esp), %edx
	leal	3(%ebx), %eax
	movl	8(%esp), %edi
	movl	%eax, 80(%esi)
	movzbl	2(%ebx), %ebx
	movl	(%esi,%edi,4), %ecx
	leal	(%esi,%edx,4), %edx
	vmovss	(%edx), %xmm0
	vmulss	(%ecx,%ebx,4), %xmm0, %xmm0
	movl	%eax, %ebx
	vmovss	%xmm0, (%edx)
	jmp	.L2
.L128:
	movzbl	4(%esp), %edx
	leal	3(%ebx), %eax
	movl	8(%esp), %edi
	movl	%eax, 80(%esi)
	movzbl	2(%ebx), %ecx
	movl	%eax, %ebx
	movl	(%esi,%edx,4), %edx
	leal	(%edx,%ecx,4), %edx
	vmovss	(%edx), %xmm0
	vmulss	(%esi,%edi,4), %xmm0, %xmm0
	vmovss	%xmm0, (%edx)
	jmp	.L2
.L127:
	movzbl	4(%esp), %eax
	movl	8(%esp), %edx
	movl	%edi, %ebx
	leal	(%esi,%eax,4), %eax
	vmovss	(%eax), %xmm0
	vmulss	(%esi,%edx,4), %xmm0, %xmm0
	vmovss	%xmm0, (%eax)
	jmp	.L2
.L126:
	movzbl	4(%esp), %ecx
	leal	3(%ebx), %eax
	leal	4(%ebx), %edx
	movl	8(%esp), %edi
	movl	%eax, 80(%esi)
	movzbl	2(%ebx), %eax
	movl	%edx, 80(%esi)
	movzbl	3(%ebx), %ebx
	movl	(%esi,%ecx,4), %ecx
	leal	(%ecx,%ebx,4), %ecx
	movl	(%esi,%edi,4), %ebx
	vmovss	(%ecx), %xmm0
	vsubss	(%ebx,%eax,4), %xmm0, %xmm0
	movl	%edx, %ebx
	vmovss	%xmm0, (%ecx)
	jmp	.L2
.L125:
	movzbl	4(%esp), %edx
	leal	3(%ebx), %eax
	movl	8(%esp), %edi
	movl	%eax, 80(%esi)
	movzbl	2(%ebx), %ebx
	movl	(%esi,%edi,4), %ecx
	leal	(%esi,%edx,4), %edx
	vmovss	(%edx), %xmm0
	vsubss	(%ecx,%ebx,4), %xmm0, %xmm0
	movl	%eax, %ebx
	vmovss	%xmm0, (%edx)
	jmp	.L2
.L124:
	movzbl	4(%esp), %edx
	leal	3(%ebx), %eax
	movl	8(%esp), %edi
	movl	%eax, 80(%esi)
	movzbl	2(%ebx), %ecx
	movl	%eax, %ebx
	movl	(%esi,%edx,4), %edx
	leal	(%edx,%ecx,4), %edx
	vmovss	(%edx), %xmm0
	vsubss	(%esi,%edi,4), %xmm0, %xmm0
	vmovss	%xmm0, (%edx)
	jmp	.L2
.L123:
	movzbl	4(%esp), %eax
	movl	8(%esp), %edx
	movl	%edi, %ebx
	leal	(%esi,%eax,4), %eax
	vmovss	(%eax), %xmm0
	vsubss	(%esi,%edx,4), %xmm0, %xmm0
	vmovss	%xmm0, (%eax)
	jmp	.L2
.L122:
	movzbl	4(%esp), %ecx
	leal	3(%ebx), %eax
	leal	4(%ebx), %edx
	movl	8(%esp), %edi
	movl	%eax, 80(%esi)
	movzbl	2(%ebx), %eax
	movl	%edx, 80(%esi)
	movzbl	3(%ebx), %ebx
	movl	(%esi,%ecx,4), %ecx
	leal	(%ecx,%ebx,4), %ecx
	movl	(%esi,%edi,4), %ebx
	vmovss	(%ecx), %xmm0
	vaddss	(%ebx,%eax,4), %xmm0, %xmm0
	movl	%edx, %ebx
	vmovss	%xmm0, (%ecx)
	jmp	.L2
.L121:
	movzbl	4(%esp), %edx
	leal	3(%ebx), %eax
	movl	8(%esp), %edi
	movl	%eax, 80(%esi)
	movzbl	2(%ebx), %ebx
	movl	(%esi,%edi,4), %ecx
	leal	(%esi,%edx,4), %edx
	vmovss	(%edx), %xmm0
	vaddss	(%ecx,%ebx,4), %xmm0, %xmm0
	movl	%eax, %ebx
	vmovss	%xmm0, (%edx)
	jmp	.L2
.L120:
	movzbl	4(%esp), %edx
	leal	3(%ebx), %eax
	movl	8(%esp), %edi
	movl	%eax, 80(%esi)
	movzbl	2(%ebx), %ecx
	movl	%eax, %ebx
	movl	(%esi,%edx,4), %edx
	leal	(%edx,%ecx,4), %edx
	vmovss	(%edx), %xmm0
	vaddss	(%esi,%edi,4), %xmm0, %xmm0
	vmovss	%xmm0, (%edx)
	jmp	.L2
.L119:
	movzbl	4(%esp), %eax
	movl	8(%esp), %edx
	movl	%edi, %ebx
	leal	(%esi,%eax,4), %eax
	vmovss	(%eax), %xmm0
	vaddss	(%esi,%edx,4), %xmm0, %xmm0
	vmovss	%xmm0, (%eax)
	jmp	.L2
.L118:
	leal	3(%ebx), %eax
	movl	8(%esp), %edi
	leal	4(%ebx), %edx
	movzbl	4(%esp), %ecx
	movl	%eax, 80(%esi)
	movzbl	2(%ebx), %eax
	movl	%edx, 80(%esi)
	movl	(%esi,%edi,4), %edi
	movzbl	3(%ebx), %ebx
	movl	(%esi,%ecx,4), %ecx
	vmovss	(%edi,%eax,4), %xmm0
	vxorps	.LC2, %xmm0, %xmm0
	vmovss	%xmm0, (%ecx,%ebx,4)
	movl	%edx, %ebx
	jmp	.L2
.L117:
	leal	3(%ebx), %eax
	movl	8(%esp), %edi
	movzbl	4(%esp), %edx
	movl	%eax, 80(%esi)
	movzbl	2(%ebx), %ebx
	movl	(%esi,%edi,4), %ecx
	vmovss	(%ecx,%ebx,4), %xmm0
	movl	%eax, %ebx
	vxorps	.LC2, %xmm0, %xmm0
	vmovss	%xmm0, (%esi,%edx,4)
	jmp	.L2
.L116:
	leal	3(%ebx), %eax
	movl	8(%esp), %edi
	movzbl	4(%esp), %edx
	movl	%eax, 80(%esi)
	movzbl	2(%ebx), %ecx
	movl	%eax, %ebx
	vmovss	(%esi,%edi,4), %xmm0
	vxorps	.LC2, %xmm0, %xmm0
	movl	(%esi,%edx,4), %edx
	vmovss	%xmm0, (%edx,%ecx,4)
	jmp	.L2
.L115:
	movl	8(%esp), %edx
	movzbl	4(%esp), %eax
	movl	%edi, %ebx
	vmovss	(%esi,%edx,4), %xmm0
	vxorps	.LC2, %xmm0, %xmm0
	vmovss	%xmm0, (%esi,%eax,4)
	jmp	.L2
.L114:
	leal	3(%ebx), %eax
	movl	8(%esp), %edi
	leal	4(%ebx), %edx
	movzbl	4(%esp), %ecx
	movl	%eax, 80(%esi)
	movzbl	2(%ebx), %eax
	movl	%edx, 80(%esi)
	movl	(%esi,%edi,4), %edi
	movzbl	3(%ebx), %ebx
	movl	(%esi,%ecx,4), %ecx
	movl	(%edi,%eax,4), %eax
	negl	%eax
	andl	$2147483647, %eax
	movl	%eax, (%ecx,%ebx,4)
	movl	%edx, %ebx
	jmp	.L2
.L113:
	leal	3(%ebx), %edx
	movl	8(%esp), %eax
	movzbl	4(%esp), %ecx
	movl	%edx, 80(%esi)
	movzbl	2(%ebx), %ebx
	movl	(%esi,%eax,4), %eax
	movl	(%eax,%ebx,4), %eax
	movl	%edx, %ebx
	negl	%eax
	andl	$2147483647, %eax
	movl	%eax, (%esi,%ecx,4)
	jmp	.L2
.L112:
	movzbl	4(%esp), %eax
	leal	3(%ebx), %edx
	movl	%edx, 80(%esi)
	movzbl	2(%ebx), %ebx
	movl	(%esi,%eax,4), %ecx
	movl	8(%esp), %eax
	movl	(%esi,%eax,4), %eax
	andl	$2147483647, %eax
	movl	%eax, (%ecx,%ebx,4)
	movl	%edx, %ebx
	jmp	.L2
.L111:
	movl	8(%esp), %eax
	movzbl	4(%esp), %edx
	movl	%edi, %ebx
	movl	(%esi,%eax,4), %eax
	andl	$2147483647, %eax
	movl	%eax, (%esi,%edx,4)
	jmp	.L2
.L110:
	movl	8(%esp), %eax
	movl	%edi, %ebx
	movl	(%esi,%eax,4), %edx
	movzbl	4(%esp), %eax
	leal	(%esi,%eax,4), %eax
	cmpl	(%eax), %edx
	jle	.L2
	movl	%edx, (%eax)
	jmp	.L2
.L109:
	movzbl	4(%esp), %eax
	movl	%edi, %ebx
	movl	8(%esp), %edi
	leal	(%esi,%eax,4), %eax
	cmpl	(%eax), %edi
	jle	.L2
	movl	%edi, (%eax)
	jmp	.L2
.L108:
	movl	8(%esp), %eax
	movl	%edi, %ebx
	movl	(%esi,%eax,4), %edx
	movzbl	4(%esp), %eax
	leal	(%esi,%eax,4), %eax
	cmpl	(%eax), %edx
	jge	.L2
	movl	%edx, (%eax)
	jmp	.L2
.L107:
	movzbl	4(%esp), %eax
	movl	%edi, %ebx
	movl	8(%esp), %edi
	leal	(%esi,%eax,4), %eax
	cmpl	(%eax), %edi
	jge	.L2
	movl	%edi, (%eax)
	jmp	.L2
.L106:
	leal	3(%ebx), %eax
	movl	8(%esp), %edi
	leal	4(%ebx), %edx
	movl	%eax, 80(%esi)
	movzbl	2(%ebx), %ecx
	movl	%edx, 80(%esi)
	movzbl	3(%ebx), %eax
	movl	(%esi,%edi,4), %ebx
	movl	(%ebx,%ecx,4), %ebx
	testl	%ebx, %ebx
	je	.L289
	movzbl	4(%esp), %ecx
	movl	(%esi,%ecx,4), %ecx
	andl	%ebx, (%ecx,%eax,4)
	movl	%edx, %ebx
	jmp	.L2
.L105:
	leal	3(%ebx), %ecx
	movl	8(%esp), %eax
	movl	%ecx, 80(%esi)
	movzbl	2(%ebx), %edx
	movl	(%esi,%eax,4), %eax
	movl	(%eax,%edx,4), %ebx
	testl	%ebx, %ebx
	je	.L289
	movzbl	4(%esp), %eax
	leal	(%esi,%eax,4), %edi
	movl	(%edi), %eax
	cltd
	idivl	%ebx
	movl	%ecx, %ebx
	movl	%edx, (%edi)
	jmp	.L2
.L104:
	movl	8(%esp), %edi
	leal	3(%ebx), %ecx
	movl	%ecx, 80(%esi)
	movzbl	2(%ebx), %eax
	movl	(%esi,%edi,4), %ebx
	testl	%ebx, %ebx
	je	.L289
	movzbl	4(%esp), %edx
	movl	(%esi,%edx,4), %edx
	leal	(%edx,%eax,4), %edi
	movl	(%edi), %eax
	cltd
	idivl	%ebx
	movl	%ecx, %ebx
	movl	%edx, (%edi)
	jmp	.L2
.L103:
	movl	8(%esp), %eax
	movl	(%esi,%eax,4), %ecx
	testl	%ecx, %ecx
	je	.L289
	movzbl	4(%esp), %eax
	leal	(%esi,%eax,4), %ebx
	movl	(%ebx), %eax
	cltd
	idivl	%ecx
	movl	%edx, (%ebx)
	movl	%edi, %ebx
	jmp	.L2
.L102:
	movzbl	4(%esp), %eax
	leal	3(%ebx), %ecx
	movl	8(%esp), %edi
	movl	%ecx, 80(%esi)
	movzbl	2(%ebx), %edx
	addl	$2, %edi
	movl	(%esi,%eax,4), %eax
	leal	(%eax,%edx,4), %ebx
	movl	(%ebx), %eax
	cltd
	idivl	%edi
	movl	%edx, (%ebx)
	movl	%ecx, %ebx
	jmp	.L2
.L101:
	movzbl	4(%esp), %eax
	movl	8(%esp), %ebx
	addl	$2, %ebx
	leal	(%esi,%eax,4), %ecx
	movl	(%ecx), %eax
	cltd
	idivl	%ebx
	movl	%edi, %ebx
	movl	%edx, (%ecx)
	jmp	.L2
.L100:
	leal	3(%ebx), %eax
	movl	8(%esp), %edi
	leal	4(%ebx), %ecx
	movl	%eax, 80(%esi)
	movzbl	2(%ebx), %edx
	movl	%ecx, 80(%esi)
	movzbl	3(%ebx), %eax
	movl	(%esi,%edi,4), %ebx
	movl	(%ebx,%edx,4), %ebx
	testl	%ebx, %ebx
	je	.L289
	movzbl	4(%esp), %edx
	movl	(%esi,%edx,4), %edx
	leal	(%edx,%eax,4), %edi
	movl	(%edi), %eax
	cltd
	idivl	%ebx
	movl	%ecx, %ebx
	movl	%eax, (%edi)
	jmp	.L2
.L99:
	leal	3(%ebx), %ecx
	movl	8(%esp), %eax
	movl	%ecx, 80(%esi)
	movzbl	2(%ebx), %edx
	movl	(%esi,%eax,4), %eax
	movl	(%eax,%edx,4), %ebx
	testl	%ebx, %ebx
	je	.L289
	movzbl	4(%esp), %eax
	leal	(%esi,%eax,4), %edi
	movl	(%edi), %eax
	cltd
	idivl	%ebx
	movl	%ecx, %ebx
	movl	%eax, (%edi)
	jmp	.L2
.L98:
	movl	8(%esp), %edi
	leal	3(%ebx), %ecx
	movl	%ecx, 80(%esi)
	movzbl	2(%ebx), %eax
	movl	(%esi,%edi,4), %ebx
	testl	%ebx, %ebx
	je	.L289
	movzbl	4(%esp), %edx
	movl	(%esi,%edx,4), %edx
	leal	(%edx,%eax,4), %edi
	movl	(%edi), %eax
	cltd
	idivl	%ebx
	movl	%ecx, %ebx
	movl	%eax, (%edi)
	jmp	.L2
.L97:
	movl	8(%esp), %eax
	movl	(%esi,%eax,4), %ecx
	testl	%ecx, %ecx
	je	.L289
	movzbl	4(%esp), %eax
	leal	(%esi,%eax,4), %ebx
	movl	(%ebx), %eax
	cltd
	idivl	%ecx
	movl	%eax, (%ebx)
	movl	%edi, %ebx
	jmp	.L2
.L96:
	movzbl	4(%esp), %eax
	leal	3(%ebx), %ecx
	movl	8(%esp), %edi
	movl	%ecx, 80(%esi)
	movzbl	2(%ebx), %edx
	addl	$2, %edi
	movl	(%esi,%eax,4), %eax
	leal	(%eax,%edx,4), %ebx
	movl	(%ebx), %eax
	cltd
	idivl	%edi
	movl	%eax, (%ebx)
	movl	%ecx, %ebx
	jmp	.L2
.L95:
	movzbl	4(%esp), %eax
	movl	8(%esp), %ebx
	addl	$2, %ebx
	leal	(%esi,%eax,4), %ecx
	movl	(%ecx), %eax
	cltd
	idivl	%ebx
	movl	%edi, %ebx
	movl	%eax, (%ecx)
	jmp	.L2
.L94:
	leal	3(%ebx), %eax
	leal	4(%ebx), %edx
	movl	%eax, 80(%esi)
	movzbl	4(%esp), %eax
	movzbl	2(%ebx), %ecx
	movl	%edx, 80(%esi)
	movzbl	3(%ebx), %ebx
	movl	(%esi,%eax,4), %eax
	leal	(%eax,%ebx,4), %ebx
	movl	8(%esp), %eax
	movl	(%esi,%eax,4), %edi
	movl	(%ebx), %eax
	imull	(%edi,%ecx,4), %eax
	movl	%eax, (%ebx)
	movl	%edx, %ebx
	jmp	.L2
.L93:
	movzbl	4(%esp), %eax
	leal	3(%ebx), %edx
	movl	%edx, 80(%esi)
	movzbl	2(%ebx), %edi
	leal	(%esi,%eax,4), %ecx
	movl	8(%esp), %eax
	movl	(%esi,%eax,4), %ebx
	movl	(%ecx), %eax
	imull	(%ebx,%edi,4), %eax
	movl	%edx, %ebx
	movl	%eax, (%ecx)
	jmp	.L2
.L92:
	movzbl	4(%esp), %eax
	leal	3(%ebx), %edx
	movl	8(%esp), %edi
	movl	%edx, 80(%esi)
	movzbl	2(%ebx), %ecx
	movl	%edx, %ebx
	movl	(%esi,%eax,4), %eax
	leal	(%eax,%ecx,4), %ecx
	movl	(%ecx), %eax
	imull	(%esi,%edi,4), %eax
	movl	%eax, (%ecx)
	jmp	.L2
.L91:
	movzbl	4(%esp), %eax
	movl	8(%esp), %ecx
	movl	%edi, %ebx
	leal	(%esi,%eax,4), %edx
	movl	(%edx), %eax
	imull	(%esi,%ecx,4), %eax
	movl	%eax, (%edx)
	jmp	.L2
.L90:
	movzbl	4(%esp), %eax
	leal	3(%ebx), %edx
	movl	%edx, 80(%esi)
	movzbl	2(%ebx), %ecx
	movl	%edx, %ebx
	movl	(%esi,%eax,4), %eax
	leal	(%eax,%ecx,4), %ecx
	movl	8(%esp), %eax
	addl	$2, %eax
	imull	(%ecx), %eax
	movl	%eax, (%ecx)
	jmp	.L2
.L89:
	movzbl	4(%esp), %eax
	movl	%edi, %ebx
	leal	(%esi,%eax,4), %edx
	movl	8(%esp), %eax
	addl	$2, %eax
	imull	(%edx), %eax
	movl	%eax, (%edx)
	jmp	.L2
.L88:
	movzbl	4(%esp), %ecx
	leal	3(%ebx), %eax
	leal	4(%ebx), %edx
	movl	8(%esp), %edi
	movl	%eax, 80(%esi)
	movzbl	2(%ebx), %eax
	movl	%edx, 80(%esi)
	movzbl	3(%ebx), %ebx
	movl	(%esi,%edi,4), %edi
	movl	(%esi,%ecx,4), %ecx
	movl	(%edi,%eax,4), %eax
	subl	%eax, (%ecx,%ebx,4)
	movl	%edx, %ebx
	jmp	.L2
.L87:
	leal	3(%ebx), %eax
	movl	8(%esp), %edi
	movzbl	4(%esp), %edx
	movl	%eax, 80(%esi)
	movzbl	2(%ebx), %ebx
	movl	(%esi,%edi,4), %ecx
	movl	(%ecx,%ebx,4), %ecx
	movl	%eax, %ebx
	subl	%ecx, (%esi,%edx,4)
	jmp	.L2
.L86:
	movzbl	4(%esp), %edx
	leal	3(%ebx), %eax
	movl	8(%esp), %edi
	movl	%eax, 80(%esi)
	movzbl	2(%ebx), %ecx
	movl	(%esi,%edi,4), %ebx
	movl	(%esi,%edx,4), %edx
	subl	%ebx, (%edx,%ecx,4)
	movl	%eax, %ebx
	jmp	.L2
.L85:
	movzbl	4(%esp), %eax
	movl	8(%esp), %edx
	movl	%edi, %ebx
	movl	(%esi,%edx,4), %edx
	subl	%edx, (%esi,%eax,4)
	jmp	.L2
.L84:
	movzbl	4(%esp), %edx
	leal	3(%ebx), %eax
	movl	%eax, 80(%esi)
	movzbl	2(%ebx), %ecx
	movl	8(%esp), %ebx
	movl	(%esi,%edx,4), %edx
	addl	$1, %ebx
	subl	%ebx, (%edx,%ecx,4)
	movl	%eax, %ebx
	jmp	.L2
.L83:
	movzbl	4(%esp), %eax
	movl	8(%esp), %edx
	movl	%edi, %ebx
	addl	$1, %edx
	subl	%edx, (%esi,%eax,4)
	jmp	.L2
.L82:
	movzbl	4(%esp), %ecx
	leal	3(%ebx), %eax
	leal	4(%ebx), %edx
	movl	8(%esp), %edi
	movl	%eax, 80(%esi)
	movzbl	2(%ebx), %eax
	movl	%edx, 80(%esi)
	movzbl	3(%ebx), %ebx
	movl	(%esi,%edi,4), %edi
	movl	(%esi,%ecx,4), %ecx
	movl	(%edi,%eax,4), %eax
	addl	%eax, (%ecx,%ebx,4)
	movl	%edx, %ebx
	jmp	.L2
.L81:
	leal	3(%ebx), %eax
	movl	8(%esp), %edi
	movzbl	4(%esp), %edx
	movl	%eax, 80(%esi)
	movzbl	2(%ebx), %ebx
	movl	(%esi,%edi,4), %ecx
	movl	(%ecx,%ebx,4), %ecx
	movl	%eax, %ebx
	addl	%ecx, (%esi,%edx,4)
	jmp	.L2
.L80:
	movzbl	4(%esp), %edx
	leal	3(%ebx), %eax
	movl	8(%esp), %edi
	movl	%eax, 80(%esi)
	movzbl	2(%ebx), %ecx
	movl	(%esi,%edi,4), %ebx
	movl	(%esi,%edx,4), %edx
	addl	%ebx, (%edx,%ecx,4)
	movl	%eax, %ebx
	jmp	.L2
.L79:
	movzbl	4(%esp), %eax
	movl	8(%esp), %edx
	movl	%edi, %ebx
	movl	(%esi,%edx,4), %edx
	addl	%edx, (%esi,%eax,4)
	jmp	.L2
.L78:
	movzbl	4(%esp), %edx
	leal	3(%ebx), %eax
	movl	%eax, 80(%esi)
	movzbl	2(%ebx), %ecx
	movl	8(%esp), %ebx
	movl	(%esi,%edx,4), %edx
	addl	$1, %ebx
	addl	%ebx, (%edx,%ecx,4)
	movl	%eax, %ebx
	jmp	.L2
.L77:
	movzbl	4(%esp), %eax
	movl	8(%esp), %edx
	movl	%edi, %ebx
	addl	$1, %edx
	addl	%edx, (%esi,%eax,4)
	jmp	.L2
.L76:
	leal	3(%ebx), %eax
	movl	8(%esp), %edi
	leal	4(%ebx), %edx
	movzbl	4(%esp), %ecx
	movl	%eax, 80(%esi)
	movzbl	2(%ebx), %eax
	movl	%edx, 80(%esi)
	movl	(%esi,%edi,4), %edi
	movzbl	3(%ebx), %ebx
	movl	(%esi,%ecx,4), %ecx
	movl	(%edi,%eax,4), %eax
	negl	%eax
	movl	%eax, (%ecx,%ebx,4)
	movl	%edx, %ebx
	jmp	.L2
.L75:
	leal	3(%ebx), %edx
	movl	8(%esp), %eax
	movzbl	4(%esp), %ecx
	movl	%edx, 80(%esi)
	movzbl	2(%ebx), %ebx
	movl	(%esi,%eax,4), %eax
	movl	(%eax,%ebx,4), %eax
	movl	%edx, %ebx
	negl	%eax
	movl	%eax, (%esi,%ecx,4)
	jmp	.L2
.L74:
	movzbl	4(%esp), %eax
	leal	3(%ebx), %edx
	movl	%edx, 80(%esi)
	movzbl	2(%ebx), %ebx
	movl	(%esi,%eax,4), %ecx
	movl	8(%esp), %eax
	movl	(%esi,%eax,4), %eax
	negl	%eax
	movl	%eax, (%ecx,%ebx,4)
	movl	%edx, %ebx
	jmp	.L2
.L73:
	movl	8(%esp), %eax
	movzbl	4(%esp), %edx
	movl	%edi, %ebx
	movl	(%esi,%eax,4), %eax
	negl	%eax
	movl	%eax, (%esi,%edx,4)
	jmp	.L2
.L72:
	movzbl	4(%esp), %eax
	leal	3(%ebx), %edx
	vmovss	64(%esi), %xmm0
	movl	%edx, 80(%esi)
	movzbl	2(%ebx), %ecx
	movl	%edx, %ebx
	movl	(%esi,%eax,4), %eax
	leal	(%eax,%ecx,4), %eax
	vmovss	%xmm0, (%eax)
	vmovss	68(%esi), %xmm0
	vmovss	%xmm0, 4(%eax)
	vmovss	72(%esi), %xmm0
	vmovss	%xmm0, 8(%eax)
	jmp	.L2
.L71:
	leal	3(%ebx), %edx
	movl	8(%esp), %eax
	movl	%edx, 80(%esi)
	movzbl	2(%ebx), %ecx
	movl	%edx, %ebx
	movl	(%esi,%eax,4), %eax
	leal	(%eax,%ecx,4), %eax
	vmovss	(%eax), %xmm0
	vmovss	%xmm0, 64(%esi)
	vmovss	4(%eax), %xmm0
	vmovss	%xmm0, 68(%esi)
	vmovss	8(%eax), %xmm0
	vmovss	%xmm0, 72(%esi)
	jmp	.L2
.L70:
	leal	3(%ebx), %eax
	movl	8(%esp), %edi
	leal	4(%ebx), %ecx
	movl	%eax, 80(%esi)
	movzbl	2(%ebx), %eax
	movl	%ecx, 80(%esi)
	movl	(%esi,%edi,4), %edx
	movzbl	3(%ebx), %ebx
	leal	(%edx,%eax,4), %edx
	movzbl	4(%esp), %eax
	vmovss	(%edx), %xmm0
	movl	(%esi,%eax,4), %eax
	leal	(%eax,%ebx,4), %eax
	movl	%ecx, %ebx
	vmovss	%xmm0, (%eax)
	vmovss	4(%edx), %xmm0
	vmovss	%xmm0, 4(%eax)
	vmovss	8(%edx), %xmm0
	vmovss	%xmm0, 8(%eax)
	jmp	.L2
.L69:
	leal	3(%ebx), %eax
	movl	8(%esp), %edi
	movl	%eax, 80(%esi)
	movzbl	2(%ebx), %ecx
	movl	%eax, %ebx
	movl	(%esi,%edi,4), %edx
	vmovss	(%edx,%ecx,4), %xmm0
	vmovss	%xmm0, 64(%esi)
	vmovss	%xmm0, 68(%esi)
	vmovss	%xmm0, 72(%esi)
	jmp	.L2
.L68:
	movl	8(%esp), %eax
	movl	%edi, %ebx
	vmovss	(%esi,%eax,4), %xmm0
	vmovss	%xmm0, 64(%esi)
	vmovss	%xmm0, 68(%esi)
	vmovss	%xmm0, 72(%esi)
	jmp	.L2
.L67:
	vxorps	%xmm0, %xmm0, %xmm0
	movl	%edi, %ebx
	vcvtsi2ss	8(%esp), %xmm0, %xmm0
	vmovss	%xmm0, 64(%esi)
	vmovss	%xmm0, 68(%esi)
	vmovss	%xmm0, 72(%esi)
	jmp	.L2
.L66:
	leal	3(%ebx), %eax
	movl	8(%esp), %edi
	leal	4(%ebx), %edx
	movl	%eax, 80(%esi)
	movzbl	2(%ebx), %eax
	movl	%edx, 80(%esi)
	movl	(%esi,%edi,4), %ecx
	vmovss	(%ecx,%eax,4), %xmm0
	movzbl	4(%esp), %eax
	movzbl	3(%ebx), %ecx
	movl	%edx, %ebx
	movl	(%esi,%eax,4), %eax
	leal	(%eax,%ecx,4), %eax
	vmovss	%xmm0, (%eax)
	vmovss	%xmm0, 4(%eax)
	vmovss	%xmm0, 8(%eax)
	jmp	.L2
.L65:
	movzbl	4(%esp), %eax
	leal	3(%ebx), %ecx
	movl	8(%esp), %edi
	movl	%ecx, 80(%esi)
	movzbl	2(%ebx), %edx
	movl	%ecx, %ebx
	movl	(%esi,%eax,4), %eax
	leal	(%eax,%edx,4), %eax
	leal	(%esi,%edi,4), %edx
	vmovss	(%edx), %xmm0
	vmovss	%xmm0, (%eax)
	vmovss	(%edx), %xmm0
	vmovss	%xmm0, 4(%eax)
	vmovss	(%edx), %xmm0
	vmovss	%xmm0, 8(%eax)
	jmp	.L2
.L64:
	movzbl	4(%esp), %eax
	leal	3(%ebx), %edx
	vxorps	%xmm0, %xmm0, %xmm0
	movl	%edx, 80(%esi)
	movzbl	2(%ebx), %ecx
	movl	%edx, %ebx
	movl	(%esi,%eax,4), %eax
	vcvtsi2ss	8(%esp), %xmm0, %xmm0
	leal	(%eax,%ecx,4), %eax
	vmovss	%xmm0, (%eax)
	vmovss	%xmm0, 4(%eax)
	vmovss	%xmm0, 8(%eax)
	jmp	.L2
.L63:
	movzbl	4(%esp), %eax
	movl	(%esi,%eax,4), %eax
	cmpl	104(%esi), %eax
	jb	.L287
	cmpl	108(%esi), %eax
	jnb	.L284
	movl	%eax, 92(%esi)
	movl	%edi, %ebx
	jmp	.L2
.L62:
	movl	92(%esi), %ecx
	leal	4(%ecx,%edx,4), %eax
	cmpl	108(%esi), %eax
	jnb	.L284
	movzbl	4(%esp), %edx
	movl	%edi, %ebx
	movl	%ecx, (%esi,%edx,4)
	movl	%eax, 92(%esi)
	jmp	.L2
.L61:
	movl	92(%esi), %eax
	cmpl	104(%esi), %eax
	jbe	.L284
	movl	(%esi,%ebp,4), %edx
	leal	-4(%eax), %ecx
	movl	-4(%eax), %eax
	movl	%edi, %ebx
	movl	%ecx, 92(%esi)
	movl	%eax, (%edx)
	jmp	.L2
.L60:
	movl	92(%esi), %eax
	cmpl	108(%esi), %eax
	jnb	.L287
	leal	4(%eax), %edx
	movl	%edi, %ebx
	movl	%edx, 92(%esi)
	movl	8(%esp), %edx
	movl	(%esi,%edx,4), %edx
	movl	(%edx), %edx
	movl	%edx, (%eax)
	jmp	.L2
.L59:
	movzbl	4(%esp), %ecx
	movl	92(%esi), %edx
	movl	%ecx, %eax
	leal	1(%eax), %ebx
	leal	-216(%edx), %eax
	subb	8(%esp), %bl
	cmpl	%eax, 104(%esi)
	jnb	.L287
	movzbl	%cl, %eax
	testb	%bl, %bl
	leal	-1(%ebx), %ecx
	leal	(%esi,%eax,4), %eax
	je	.L321
	movzbl	%cl, %ecx
	notl	%ecx
	leal	(%eax,%ecx,4), %ebx
	.p2align 4,,10
	.p2align 3
.L288:
	movl	-4(%edx), %ecx
	subl	$4, %eax
	subl	$4, %edx
	movl	%ecx, 4(%eax)
	cmpl	%ebx, %eax
	jne	.L288
	movl	%edx, 92(%esi)
	movl	%edi, %ebx
	jmp	.L2
.L58:
	movzbl	4(%esp), %ecx
	movl	8(%esp), %ebx
	movl	92(%esi), %eax
	addl	$1, %ecx
	subl	%ebx, %ecx
	movzbl	%cl, %edx
	leal	(%eax,%edx,4), %edx
	cmpl	%edx, 108(%esi)
	jbe	.L284
	testb	%cl, %cl
	leal	(%esi,%ebx,4), %edx
	leal	-1(%ecx), %ebx
	je	.L320
	movzbl	%bl, %ecx
	addl	$4, %eax
	leal	4(%edx,%ecx,4), %ebp
	.p2align 4,,10
	.p2align 3
.L285:
	movl	(%edx), %ecx
	addl	$4, %edx
	movl	%eax, %ebx
	addl	$4, %eax
	movl	%ecx, -8(%eax)
	cmpl	%ebp, %edx
	jne	.L285
	movl	%ebx, 92(%esi)
	movl	%edi, %ebx
	jmp	.L2
.L54:
	movzbl	4(%esp), %eax
	vmovss	76(%esi), %xmm0
	movl	%edi, %ebx
	vmovss	%xmm0, (%esi,%eax,4)
	jmp	.L2
.L56:
	leal	3(%ebx), %eax
	leal	5(%ebx), %ecx
	movl	%eax, 80(%esi)
	leal	4(%ebx), %eax
	movzbl	2(%ebx), %edx
	movl	%eax, 80(%esi)
	movzbl	3(%ebx), %eax
	movl	%ecx, 80(%esi)
	movzbl	4(%ebx), %ebx
	sall	$8, %eax
	orw	%bx, %ax
	je	.L283
	cmpw	128(%esi), %ax
	jnb	.L283
	movl	120(%esi), %ebx
	movzwl	%ax, %eax
	movl	(%ebx,%eax,4), %eax
	movl	%ecx, %ebx
	movl	(%eax,%edx,4), %edx
	movzbl	4(%esp), %eax
	movl	%edx, (%esi,%eax,4)
	jmp	.L2
.L55:
	movzbl	4(%esp), %edx
	leal	3(%ebx), %eax
	vmovss	76(%esi), %xmm0
	movl	%eax, 80(%esi)
	movzbl	2(%ebx), %ecx
	movl	%eax, %ebx
	movl	(%esi,%edx,4), %edx
	vmovss	%xmm0, (%edx,%ecx,4)
	jmp	.L2
.L57:
	leal	3(%ebx), %eax
	leal	6(%ebx), %edi
	movl	%eax, 80(%esi)
	leal	4(%ebx), %eax
	movzbl	2(%ebx), %edx
	movl	%eax, 80(%esi)
	leal	5(%ebx), %eax
	movzbl	3(%ebx), %ecx
	movl	%eax, 80(%esi)
	movzbl	4(%ebx), %eax
	movl	%edi, 80(%esi)
	movzbl	5(%ebx), %ebx
	sall	$8, %eax
	orw	%bx, %ax
	je	.L283
	cmpw	128(%esi), %ax
	jnb	.L283
	movl	120(%esi), %ebx
	movzwl	%ax, %eax
	movl	(%ebx,%eax,4), %eax
	movl	%edi, %ebx
	movl	(%eax,%ecx,4), %ecx
	movzbl	4(%esp), %eax
	movl	(%esi,%eax,4), %eax
	movl	%ecx, (%eax,%edx,4)
	jmp	.L2
.L52:
	leal	3(%ebx), %eax
	movl	8(%esp), %edi
	movl	%eax, 80(%esi)
	movzbl	2(%ebx), %ecx
	movl	%eax, %ebx
	movl	(%esi,%edi,4), %edx
	movl	(%edx,%ecx,4), %ecx
	movzbl	4(%esp), %edx
	movl	%ecx, (%esi,%edx,4)
	jmp	.L2
.L51:
	movzbl	4(%esp), %edx
	leal	3(%ebx), %eax
	movl	8(%esp), %edi
	movl	%eax, 80(%esi)
	movzbl	2(%ebx), %ecx
	movl	%eax, %ebx
	movl	(%esi,%edi,4), %edi
	movl	(%esi,%edx,4), %edx
	movl	%edi, (%edx,%ecx,4)
	jmp	.L2
.L53:
	leal	3(%ebx), %eax
	movl	8(%esp), %edi
	leal	4(%ebx), %edx
	movl	%eax, 80(%esi)
	movzbl	2(%ebx), %eax
	movl	%edx, 80(%esi)
	movl	(%esi,%edi,4), %ecx
	movl	(%ecx,%eax,4), %edi
	movzbl	4(%esp), %eax
	movzbl	3(%ebx), %ecx
	movl	%edx, %ebx
	movl	(%esi,%eax,4), %eax
	movl	%edi, (%eax,%ecx,4)
	jmp	.L2
.L50:
	movl	8(%esp), %eax
	movl	%edi, %ebx
	movl	(%esi,%eax,4), %edx
	movzbl	4(%esp), %eax
	movl	%edx, (%esi,%eax,4)
	jmp	.L2
.L49:
	movzbl	4(%esp), %edx
	leal	3(%ebx), %eax
	movl	8(%esp), %edi
	movl	%eax, 80(%esi)
	movzbl	2(%ebx), %ecx
	movl	%eax, %ebx
	movl	(%esi,%edx,4), %edx
	movl	%edi, (%edx,%ecx,4)
	jmp	.L2
.L48:
	movzbl	4(%esp), %eax
	movl	8(%esp), %edx
	movl	%edi, %ebx
	movl	%edx, (%esi,%eax,4)
	jmp	.L2
.L47:
	addl	$5, %ebx
	movl	%ebx, 80(%esi)
	jmp	.L2
.L46:
	leal	3(%ebx), %eax
	leal	4(%ebx), %edx
	movl	8(%esp), %edi
	movl	%eax, 80(%esi)
	movzbl	2(%ebx), %eax
	movl	%edx, 80(%esi)
	movl	(%esi,%edi,4), %edi
	leal	0(,%eax,4), %edx
	movl	%edx, 8(%esp)
	movzbl	4(%esp), %edx
	movl	(%esi,%edx,4), %ecx
	movzbl	3(%ebx), %edx
	leal	0(,%edx,4), %ebp
	movl	(%ecx,%edx,4), %edx
	cmpl	%edx, (%edi,%eax,4)
	je	.L405
.L280:
	leal	5(%ebx), %edx
	movl	%edx, 80(%esi)
	movzbl	4(%ebx), %eax
	movzbl	5(%ebx), %ebx
	sall	$8, %eax
	orl	%eax, %ebx
	movswl	%bx, %ebx
	addl	%edx, %ebx
	movl	%ebx, 80(%esi)
	jmp	.L2
.L45:
	addl	$5, %ebx
	movl	%ebx, 80(%esi)
	jmp	.L2
.L44:
	leal	3(%ebx), %eax
	leal	4(%ebx), %edx
	movl	8(%esp), %edi
	movl	%eax, 80(%esi)
	movzbl	2(%ebx), %eax
	movl	%edx, 80(%esi)
	movl	(%esi,%edi,4), %edi
	leal	0(,%eax,4), %edx
	movl	%edx, 8(%esp)
	movzbl	4(%esp), %edx
	movl	(%esi,%edx,4), %ecx
	movzbl	3(%ebx), %edx
	leal	0(,%edx,4), %ebp
	movl	(%ecx,%edx,4), %edx
	cmpl	%edx, (%edi,%eax,4)
	je	.L406
.L279:
	addl	$6, %ebx
	movl	%ebx, 80(%esi)
	jmp	.L2
.L43:
	leal	3(%ebx), %eax
	leal	4(%ebx), %edx
	movl	8(%esp), %edi
	movl	%eax, 80(%esi)
	movzbl	2(%ebx), %eax
	movl	%edx, 80(%esi)
	movzbl	4(%esp), %edx
	movl	(%esi,%edi,4), %edi
	movzbl	3(%ebx), %ecx
	movl	(%esi,%edx,4), %edx
	vmovss	(%edi,%eax,4), %xmm0
	vucomiss	(%edx,%ecx,4), %xmm0
	jbe	.L383
	leal	5(%ebx), %edx
	movl	%edx, 80(%esi)
	movzbl	4(%ebx), %eax
	movzbl	5(%ebx), %ebx
	sall	$8, %eax
	orl	%eax, %ebx
	movswl	%bx, %ebx
	addl	%edx, %ebx
	movl	%ebx, 80(%esi)
	jmp	.L2
.L42:
	leal	3(%ebx), %eax
	movl	%eax, 80(%esi)
	movl	8(%esp), %eax
	movzbl	2(%ebx), %ecx
	movl	(%esi,%eax,4), %edx
	movzbl	4(%esp), %eax
	vmovss	(%edx,%ecx,4), %xmm0
	vucomiss	(%esi,%eax,4), %xmm0
	jbe	.L382
	leal	4(%ebx), %edx
	movl	%edx, 80(%esi)
	movzbl	3(%ebx), %eax
	movzbl	4(%ebx), %ebx
	sall	$8, %eax
	orl	%eax, %ebx
	movswl	%bx, %ebx
	addl	%edx, %ebx
	movl	%ebx, 80(%esi)
	jmp	.L2
.L38:
	leal	3(%ebx), %eax
	movl	%eax, 80(%esi)
	movl	8(%esp), %eax
	movzbl	2(%ebx), %ecx
	movl	(%esi,%eax,4), %edx
	movzbl	4(%esp), %eax
	vmovss	(%edx,%ecx,4), %xmm0
	vucomiss	(%esi,%eax,4), %xmm0
	jb	.L378
	leal	4(%ebx), %edx
	movl	%edx, 80(%esi)
	movzbl	3(%ebx), %eax
	movzbl	4(%ebx), %ebx
	sall	$8, %eax
	orl	%eax, %ebx
	movswl	%bx, %ebx
	addl	%edx, %ebx
	movl	%ebx, 80(%esi)
	jmp	.L2
.L40:
	movzbl	4(%esp), %eax
	movl	8(%esp), %edi
	vmovss	(%esi,%edi,4), %xmm0
	vucomiss	(%esi,%eax,4), %xmm0
	jbe	.L380
	leal	3(%ebx), %edx
	movl	%edx, 80(%esi)
	movzbl	2(%ebx), %eax
	movzbl	3(%ebx), %ebx
	sall	$8, %eax
	orl	%eax, %ebx
	movswl	%bx, %ebx
	addl	%edx, %ebx
	movl	%ebx, 80(%esi)
	jmp	.L2
.L36:
	movzbl	4(%esp), %eax
	movl	8(%esp), %edi
	vmovss	(%esi,%edi,4), %xmm0
	vucomiss	(%esi,%eax,4), %xmm0
	jb	.L376
	leal	3(%ebx), %edx
	movl	%edx, 80(%esi)
	movzbl	2(%ebx), %eax
	movzbl	3(%ebx), %ebx
	sall	$8, %eax
	orl	%eax, %ebx
	movswl	%bx, %ebx
	addl	%edx, %ebx
	movl	%ebx, 80(%esi)
	jmp	.L2
.L41:
	leal	3(%ebx), %eax
	movl	8(%esp), %edi
	movl	%eax, 80(%esi)
	movzbl	4(%esp), %eax
	movzbl	2(%ebx), %edx
	vmovss	(%esi,%edi,4), %xmm0
	movl	(%esi,%eax,4), %eax
	vucomiss	(%eax,%edx,4), %xmm0
	jbe	.L381
	leal	4(%ebx), %edx
	movl	%edx, 80(%esi)
	movzbl	3(%ebx), %eax
	movzbl	4(%ebx), %ebx
	sall	$8, %eax
	orl	%eax, %ebx
	movswl	%bx, %ebx
	addl	%edx, %ebx
	movl	%ebx, 80(%esi)
	jmp	.L2
.L37:
	leal	3(%ebx), %eax
	movl	8(%esp), %edi
	movl	%eax, 80(%esi)
	movzbl	4(%esp), %eax
	movzbl	2(%ebx), %edx
	vmovss	(%esi,%edi,4), %xmm0
	movl	(%esi,%eax,4), %eax
	vucomiss	(%eax,%edx,4), %xmm0
	jb	.L377
	leal	4(%ebx), %edx
	movl	%edx, 80(%esi)
	movzbl	3(%ebx), %eax
	movzbl	4(%ebx), %ebx
	sall	$8, %eax
	orl	%eax, %ebx
	movswl	%bx, %ebx
	addl	%edx, %ebx
	movl	%ebx, 80(%esi)
	jmp	.L2
.L39:
	leal	3(%ebx), %eax
	leal	4(%ebx), %edx
	movl	8(%esp), %edi
	movl	%eax, 80(%esi)
	movzbl	2(%ebx), %eax
	movl	%edx, 80(%esi)
	movzbl	4(%esp), %edx
	movl	(%esi,%edi,4), %edi
	movzbl	3(%ebx), %ecx
	movl	(%esi,%edx,4), %edx
	vmovss	(%edi,%eax,4), %xmm0
	vucomiss	(%edx,%ecx,4), %xmm0
	jb	.L379
	leal	5(%ebx), %edx
	movl	%edx, 80(%esi)
	movzbl	4(%ebx), %eax
	movzbl	5(%ebx), %ebx
	sall	$8, %eax
	orl	%eax, %ebx
	movswl	%bx, %ebx
	addl	%edx, %ebx
	movl	%ebx, 80(%esi)
	jmp	.L2
.L35:
	leal	3(%ebx), %eax
	leal	4(%ebx), %edx
	movl	8(%esp), %edi
	movl	%eax, 80(%esi)
	movzbl	2(%ebx), %eax
	movl	%edx, 80(%esi)
	movzbl	4(%esp), %edx
	movl	(%esi,%edi,4), %edi
	movzbl	3(%ebx), %ecx
	movl	(%esi,%edx,4), %edx
	vmovss	(%edi,%eax,4), %xmm0
	vsubss	(%edx,%ecx,4), %xmm0, %xmm0
	vucomiss	.LC0, %xmm0
	jb	.L260
	vmovss	.LC1, %xmm1
	vucomiss	%xmm0, %xmm1
	jb	.L260
	leal	5(%ebx), %edx
	movl	%edx, 80(%esi)
	movzbl	4(%ebx), %eax
	movzbl	5(%ebx), %ebx
	sall	$8, %eax
	orl	%eax, %ebx
	movswl	%bx, %ebx
	addl	%edx, %ebx
	movl	%ebx, 80(%esi)
	jmp	.L2
.L34:
	leal	3(%ebx), %eax
	movl	8(%esp), %edi
	movl	%eax, 80(%esi)
	movzbl	4(%esp), %eax
	movzbl	2(%ebx), %edx
	vmovss	(%esi,%edi,4), %xmm0
	movl	(%esi,%eax,4), %eax
	vsubss	(%eax,%edx,4), %xmm0, %xmm0
	vucomiss	.LC0, %xmm0
	jb	.L257
	vmovss	.LC1, %xmm1
	vucomiss	%xmm0, %xmm1
	jb	.L257
	leal	4(%ebx), %edx
	movl	%edx, 80(%esi)
	movzbl	3(%ebx), %eax
	movzbl	4(%ebx), %ebx
	sall	$8, %eax
	orl	%eax, %ebx
	movswl	%bx, %ebx
	addl	%edx, %ebx
	movl	%ebx, 80(%esi)
	jmp	.L2
.L18:
	movzbl	4(%esp), %eax
	movl	(%esi,%eax,4), %edi
	testl	%edi, %edi
	jne	.L239
	leal	3(%ebx), %edx
	movl	%edx, 80(%esi)
	movzbl	2(%ebx), %eax
	movzbl	3(%ebx), %ebx
	sall	$8, %eax
	orl	%eax, %ebx
	movswl	%bx, %ebx
	addl	%edx, %ebx
	movl	%ebx, 80(%esi)
	jmp	.L2
.L26:
	leal	3(%ebx), %eax
	movl	8(%esp), %edi
	movl	%eax, 80(%esi)
	movzbl	4(%esp), %eax
	movzbl	2(%ebx), %edx
	movl	(%esi,%eax,4), %eax
	movl	(%eax,%edx,4), %eax
	cmpl	%eax, (%esi,%edi,4)
	jl	.L247
	leal	4(%ebx), %edx
	movl	%edx, 80(%esi)
	movzbl	3(%ebx), %eax
	movzbl	4(%ebx), %ebx
	sall	$8, %eax
	orl	%eax, %ebx
	movswl	%bx, %ebx
	addl	%edx, %ebx
	movl	%ebx, 80(%esi)
	jmp	.L2
.L10:
	leal	3(%ebx), %edx
	sall	$8, %ecx
	movl	88(%esi), %eax
	movl	%edx, 80(%esi)
	movzbl	2(%ebx), %ebx
	orl	%ecx, %ebx
	cmpl	100(%esi), %eax
	jnb	.L233
	leal	4(%eax), %ecx
	movswl	%bx, %ebx
	movl	%ecx, 88(%esi)
	movl	%edx, (%eax)
	addl	80(%esi), %ebx
	movl	%ebx, 80(%esi)
	jmp	.L2
.L30:
	leal	3(%ebx), %eax
	movl	8(%esp), %edi
	movl	%eax, 80(%esi)
	movzbl	4(%esp), %eax
	movzbl	2(%ebx), %edx
	movl	(%esi,%eax,4), %eax
	movl	(%eax,%edx,4), %eax
	cmpl	%eax, (%esi,%edi,4)
	jle	.L251
	leal	4(%ebx), %edx
	movl	%edx, 80(%esi)
	movzbl	3(%ebx), %eax
	movzbl	4(%ebx), %ebx
	sall	$8, %eax
	orl	%eax, %ebx
	movswl	%bx, %ebx
	addl	%edx, %ebx
	movl	%ebx, 80(%esi)
	jmp	.L2
.L14:
	leal	3(%ebx), %eax
	sall	$8, %ecx
	movl	%eax, 80(%esi)
	movzbl	2(%ebx), %eax
	orl	%eax, %ecx
	cmpw	124(%esi), %cx
	jnb	.L407
	movl	116(%esi), %eax
	movzwl	%cx, %ecx
	movl	(%eax,%ecx,4), %eax
	testl	%eax, %eax
	je	.L235
	subl	$12, %esp
	.cfi_def_cfa_offset 60
	pushl	%esi
	.cfi_def_cfa_offset 64
	call	*%eax
	movl	80(%esi), %ebx
	addl	$16, %esp
	.cfi_def_cfa_offset 48
	jmp	.L2
.L22:
	movzbl	4(%esp), %eax
	movl	8(%esp), %edi
	movl	(%esi,%eax,4), %eax
	cmpl	%eax, (%esi,%edi,4)
	je	.L408
	addl	$4, %ebx
	movl	%ebx, 80(%esi)
	jmp	.L2
.L21:
	leal	3(%ebx), %eax
	movl	%eax, 80(%esi)
	movzbl	4(%esp), %eax
	movzbl	2(%ebx), %edx
	movl	(%esi,%eax,4), %eax
	movl	(%eax,%edx,4), %eax
	testl	%eax, %eax
	je	.L242
	leal	4(%ebx), %edx
	movl	%edx, 80(%esi)
	movzbl	3(%ebx), %eax
	movzbl	4(%ebx), %ebx
	sall	$8, %eax
	orl	%eax, %ebx
	movswl	%bx, %ebx
	addl	%edx, %ebx
	movl	%ebx, 80(%esi)
	jmp	.L2
.L20:
	movzbl	4(%esp), %eax
	movl	(%esi,%eax,4), %edx
	testl	%edx, %edx
	je	.L241
	leal	3(%ebx), %edx
	movl	%edx, 80(%esi)
	movzbl	2(%ebx), %eax
	movzbl	3(%ebx), %ebx
	sall	$8, %eax
	orl	%eax, %ebx
	movswl	%bx, %ebx
	addl	%edx, %ebx
	movl	%ebx, 80(%esi)
	jmp	.L2
.L6:
	movsbl	%dl, %edx
	leal	(%edi,%edx), %ebx
	movl	%ebx, 80(%esi)
	jmp	.L2
.L32:
	leal	3(%ebx), %eax
	leal	4(%ebx), %edx
	movl	8(%esp), %edi
	movl	%eax, 80(%esi)
	movzbl	2(%ebx), %eax
	movl	%edx, 80(%esi)
	movzbl	4(%esp), %edx
	movzbl	3(%ebx), %ecx
	movl	(%esi,%edi,4), %edi
	movl	(%esi,%edx,4), %edx
	movl	(%edx,%ecx,4), %edx
	cmpl	%edx, (%edi,%eax,4)
	jle	.L253
	leal	5(%ebx), %edx
	movl	%edx, 80(%esi)
	movzbl	4(%ebx), %eax
	movzbl	5(%ebx), %ebx
	sall	$8, %eax
	orl	%eax, %ebx
	movswl	%bx, %ebx
	addl	%edx, %ebx
	movl	%ebx, 80(%esi)
	jmp	.L2
.L31:
	leal	3(%ebx), %eax
	movl	%eax, 80(%esi)
	movl	8(%esp), %eax
	movzbl	2(%ebx), %ecx
	movl	(%esi,%eax,4), %edx
	movzbl	4(%esp), %eax
	movl	(%esi,%eax,4), %eax
	cmpl	%eax, (%edx,%ecx,4)
	jle	.L252
	leal	4(%ebx), %edx
	movl	%edx, 80(%esi)
	movzbl	3(%ebx), %eax
	movzbl	4(%ebx), %ebx
	sall	$8, %eax
	orl	%eax, %ebx
	movswl	%bx, %ebx
	addl	%edx, %ebx
	movl	%ebx, 80(%esi)
	jmp	.L2
.L33:
	movzbl	4(%esp), %eax
	movl	8(%esp), %edi
	vmovss	(%esi,%edi,4), %xmm0
	vsubss	(%esi,%eax,4), %xmm0, %xmm0
	vucomiss	.LC0, %xmm0
	jb	.L254
	vmovss	.LC1, %xmm1
	vucomiss	%xmm0, %xmm1
	jb	.L254
	leal	3(%ebx), %edx
	movl	%edx, 80(%esi)
	movzbl	2(%ebx), %eax
	movzbl	3(%ebx), %ebx
	sall	$8, %eax
	orl	%eax, %ebx
	movswl	%bx, %ebx
	addl	%edx, %ebx
	movl	%ebx, 80(%esi)
	jmp	.L2
.L28:
	leal	3(%ebx), %eax
	leal	4(%ebx), %edx
	movl	8(%esp), %edi
	movl	%eax, 80(%esi)
	movzbl	2(%ebx), %eax
	movl	%edx, 80(%esi)
	movzbl	4(%esp), %edx
	movzbl	3(%ebx), %ecx
	movl	(%esi,%edi,4), %edi
	movl	(%esi,%edx,4), %edx
	movl	(%edx,%ecx,4), %edx
	cmpl	%edx, (%edi,%eax,4)
	jl	.L249
	leal	5(%ebx), %edx
	movl	%edx, 80(%esi)
	movzbl	4(%ebx), %eax
	movzbl	5(%ebx), %ebx
	sall	$8, %eax
	orl	%eax, %ebx
	movswl	%bx, %ebx
	addl	%edx, %ebx
	movl	%ebx, 80(%esi)
	jmp	.L2
.L29:
	movzbl	4(%esp), %eax
	movl	8(%esp), %edi
	movl	(%esi,%eax,4), %eax
	cmpl	%eax, (%esi,%edi,4)
	jle	.L250
	leal	3(%ebx), %edx
	movl	%edx, 80(%esi)
	movzbl	2(%ebx), %eax
	movzbl	3(%ebx), %ebx
	sall	$8, %eax
	orl	%eax, %ebx
	movswl	%bx, %ebx
	addl	%edx, %ebx
	movl	%ebx, 80(%esi)
	jmp	.L2
.L27:
	leal	3(%ebx), %eax
	movl	%eax, 80(%esi)
	movl	8(%esp), %eax
	movzbl	2(%ebx), %ecx
	movl	(%esi,%eax,4), %edx
	movzbl	4(%esp), %eax
	movl	(%esi,%eax,4), %eax
	cmpl	%eax, (%edx,%ecx,4)
	jl	.L248
	leal	4(%ebx), %edx
	movl	%edx, 80(%esi)
	movzbl	3(%ebx), %eax
	movzbl	4(%ebx), %ebx
	sall	$8, %eax
	orl	%eax, %ebx
	movswl	%bx, %ebx
	addl	%edx, %ebx
	movl	%ebx, 80(%esi)
	jmp	.L2
.L24:
	leal	3(%ebx), %eax
	leal	4(%ebx), %edx
	movl	8(%esp), %edi
	movl	%eax, 80(%esi)
	movzbl	2(%ebx), %eax
	movl	%edx, 80(%esi)
	movzbl	4(%esp), %edx
	movzbl	3(%ebx), %ecx
	movl	(%esi,%edi,4), %edi
	movl	(%esi,%edx,4), %edx
	movl	(%edx,%ecx,4), %edx
	cmpl	%edx, (%edi,%eax,4)
	je	.L409
	addl	$6, %ebx
	movl	%ebx, 80(%esi)
	jmp	.L2
.L16:
	movzbl	4(%esp), %eax
	leal	(%esi,%eax,4), %edx
	subl	$1, (%edx)
	je	.L237
	leal	3(%ebx), %edx
	movl	%edx, 80(%esi)
	movzbl	2(%ebx), %eax
	movzbl	3(%ebx), %ebx
	sall	$8, %eax
	orl	%eax, %ebx
	movswl	%bx, %ebx
	addl	%edx, %ebx
	movl	%ebx, 80(%esi)
	jmp	.L2
.L15:
	movl	88(%esi), %eax
	cmpl	96(%esi), %eax
	jbe	.L236
	leal	-4(%eax), %edx
	movl	%edx, 88(%esi)
	movl	-4(%eax), %ebx
	movl	%ebx, 80(%esi)
	jmp	.L2
.L19:
	leal	3(%ebx), %eax
	movl	%eax, 80(%esi)
	movzbl	4(%esp), %eax
	movzbl	2(%ebx), %edx
	movl	(%esi,%eax,4), %eax
	movl	(%eax,%edx,4), %ecx
	testl	%ecx, %ecx
	jne	.L240
	leal	4(%ebx), %edx
	movl	%edx, 80(%esi)
	movzbl	3(%ebx), %eax
	movzbl	4(%ebx), %ebx
	sall	$8, %eax
	orl	%eax, %ebx
	movswl	%bx, %ebx
	addl	%edx, %ebx
	movl	%ebx, 80(%esi)
	jmp	.L2
.L25:
	movzbl	4(%esp), %eax
	movl	8(%esp), %edi
	movl	(%esi,%eax,4), %eax
	cmpl	%eax, (%esi,%edi,4)
	jl	.L246
	leal	3(%ebx), %edx
	movl	%edx, 80(%esi)
	movzbl	2(%ebx), %eax
	movzbl	3(%ebx), %ebx
	sall	$8, %eax
	orl	%eax, %ebx
	movswl	%bx, %ebx
	addl	%edx, %ebx
	movl	%ebx, 80(%esi)
	jmp	.L2
.L8:
	movzbl	4(%esp), %eax
	movzbl	8(%esp), %edx
	movl	(%esi,%eax,4), %eax
	addl	$2, %edx
	cmpb	%al, %dl
	jnb	.L227
	movzbl	%dl, %edx
	leal	(%edi,%edx), %ebx
	movl	%ebx, 80(%esi)
	jmp	.L2
.L23:
	leal	3(%ebx), %eax
	movl	8(%esp), %edi
	movl	%eax, 80(%esi)
	movzbl	4(%esp), %eax
	movzbl	2(%ebx), %edx
	movl	(%esi,%eax,4), %eax
	movl	(%eax,%edx,4), %eax
	cmpl	%eax, (%esi,%edi,4)
	je	.L410
	addl	$5, %ebx
	movl	%ebx, 80(%esi)
	jmp	.L2
.L12:
	movl	8(%esp), %eax
	movl	(%esi,%eax,4), %eax
	testw	%ax, %ax
	je	.L230
	cmpw	124(%esi), %ax
	jnb	.L230
	movl	88(%esi), %edx
	cmpl	100(%esi), %edx
	jb	.L411
.L233:
	movl	$8, 84(%esi)
.L387:
	addl	$28, %esp
	.cfi_remember_state
	.cfi_def_cfa_offset 20
	popl	%ebx
	.cfi_restore 3
	.cfi_def_cfa_offset 16
	popl	%esi
	.cfi_restore 6
	.cfi_def_cfa_offset 12
	popl	%edi
	.cfi_restore 7
	.cfi_def_cfa_offset 8
	popl	%ebp
	.cfi_restore 5
	.cfi_def_cfa_offset 4
	ret
	.p2align 4,,10
	.p2align 3
.L11:
	.cfi_restore_state
	leal	3(%ebx), %edx
	sall	$8, %ecx
	movl	%edx, 80(%esi)
	movzbl	2(%ebx), %eax
	orw	%ax, %cx
	je	.L230
	cmpw	124(%esi), %cx
	jnb	.L230
	movl	88(%esi), %eax
	cmpl	100(%esi), %eax
	jnb	.L233
	leal	4(%eax), %ebx
	movzwl	%cx, %ecx
	movl	%ebx, 88(%esi)
	movl	%edx, (%eax)
	movl	112(%esi), %eax
	movl	(%eax,%ecx,4), %ebx
	movl	%ebx, 80(%esi)
	jmp	.L2
.L13:
	leal	3(%ebx), %edx
	movl	8(%esp), %eax
	movl	%edx, 80(%esi)
	movzbl	2(%ebx), %ecx
	movl	(%esi,%eax,4), %eax
	movl	(%eax,%ecx,4), %eax
	testw	%ax, %ax
	je	.L230
	cmpw	124(%esi), %ax
	jnb	.L230
	movl	88(%esi), %ecx
	cmpl	100(%esi), %ecx
	jnb	.L233
	leal	4(%ecx), %ebx
	movzwl	%ax, %eax
	movl	%ebx, 88(%esi)
	movl	%edx, (%ecx)
	movl	112(%esi), %edx
	movl	(%edx,%eax,4), %ebx
	movl	%ebx, 80(%esi)
	jmp	.L2
.L17:
	leal	3(%ebx), %eax
	movl	%eax, 80(%esi)
	movl	8(%esp), %eax
	movzbl	2(%ebx), %edx
	movl	(%esi,%eax,4), %eax
	movl	(%eax,%edx,4), %eax
	movzbl	4(%esp), %edx
	testl	%eax, %eax
	movl	%eax, (%esi,%edx,4)
	je	.L238
	leal	4(%ebx), %edx
	movl	%edx, 80(%esi)
	movzbl	3(%ebx), %eax
	movzbl	4(%ebx), %ebx
	sall	$8, %eax
	orl	%eax, %ebx
	movswl	%bx, %ebx
	addl	%edx, %ebx
	movl	%ebx, 80(%esi)
	jmp	.L2
.L222:
	leal	3(%ebx), %eax
	leal	4(%ebx), %edx
	movl	%eax, 80(%esi)
	movzbl	4(%esp), %eax
	movzbl	2(%ebx), %ecx
	movl	%edx, 80(%esi)
	movzbl	3(%ebx), %ebx
	movl	(%esi,%eax,4), %edi
	movzbl	%cl, %eax
	movl	8(%esp), %ecx
	movl	(%esi,%ecx,4), %ecx
	movl	(%ecx,%eax,4), %ecx
	shrl	%cl, (%edi,%ebx,4)
	movl	%edx, %ebx
	jmp	.L2
.L9:
	leal	3(%ebx), %edx
	movzbl	4(%esp), %ecx
	movl	%edx, 80(%esi)
	movzbl	2(%ebx), %eax
	movl	(%esi,%ecx,4), %ecx
	addl	$2, %eax
	cmpw	%cx, %ax
	jnb	.L228
	movzwl	%ax, %eax
	leal	(%edx,%eax), %ebx
	movl	%ebx, 80(%esi)
	jmp	.L2
.L7:
	movzbl	2(%ebx), %ebx
	sall	$8, %ecx
	orl	%ecx, %ebx
	movswl	%bx, %ebx
	addl	%edi, %ebx
	movl	%ebx, 80(%esi)
	jmp	.L2
.L4:
	movl	12(%esp), %ebp
	movl	%ebp, 80(%esi)
	addl	$28, %esp
	.cfi_remember_state
	.cfi_def_cfa_offset 20
	popl	%ebx
	.cfi_restore 3
	.cfi_def_cfa_offset 16
	popl	%esi
	.cfi_restore 6
	.cfi_def_cfa_offset 12
	popl	%edi
	.cfi_restore 7
	.cfi_def_cfa_offset 8
	popl	%ebp
	.cfi_restore 5
	.cfi_def_cfa_offset 4
	ret
.L257:
	.cfi_restore_state
	addl	$5, %ebx
	movl	%ebx, 80(%esi)
	jmp	.L2
.L254:
	addl	$4, %ebx
	movl	%ebx, 80(%esi)
	jmp	.L2
.L260:
	addl	$6, %ebx
	movl	%ebx, 80(%esi)
	jmp	.L2
.L3:
.L225:
	movl	$4, 84(%esi)
	addl	$28, %esp
	.cfi_remember_state
	.cfi_def_cfa_offset 20
	popl	%ebx
	.cfi_restore 3
	.cfi_def_cfa_offset 16
	popl	%esi
	.cfi_restore 6
	.cfi_def_cfa_offset 12
	popl	%edi
	.cfi_restore 7
	.cfi_def_cfa_offset 8
	popl	%ebp
	.cfi_restore 5
	.cfi_def_cfa_offset 4
	ret
.L230:
	.cfi_restore_state
	movl	$11, 84(%esi)
	addl	$28, %esp
	.cfi_remember_state
	.cfi_def_cfa_offset 20
	popl	%ebx
	.cfi_restore 3
	.cfi_def_cfa_offset 16
	popl	%esi
	.cfi_restore 6
	.cfi_def_cfa_offset 12
	popl	%edi
	.cfi_restore 7
	.cfi_def_cfa_offset 8
	popl	%ebp
	.cfi_restore 5
	.cfi_def_cfa_offset 4
	ret
.L241:
	.cfi_restore_state
	addl	$4, %ebx
	movl	%ebx, 80(%esi)
	jmp	.L2
.L247:
	addl	$5, %ebx
	movl	%ebx, 80(%esi)
	jmp	.L2
.L246:
	addl	$4, %ebx
	movl	%ebx, 80(%esi)
	jmp	.L2
.L228:
	leal	(%ecx,%ecx), %eax
	movzwl	%ax, %eax
	movzbl	3(%ebx,%eax), %ecx
	movzbl	1(%edx,%eax), %ebx
	sall	$8, %ecx
	orl	%ecx, %ebx
	movswl	%bx, %ebx
	addl	%edx, %ebx
	movl	%ebx, 80(%esi)
	jmp	.L2
.L242:
	addl	$5, %ebx
	movl	%ebx, 80(%esi)
	jmp	.L2
.L251:
	addl	$5, %ebx
	movl	%ebx, 80(%esi)
	jmp	.L2
.L253:
	addl	$6, %ebx
	movl	%ebx, 80(%esi)
	jmp	.L2
.L237:
	addl	$4, %ebx
	movl	%ebx, 80(%esi)
	jmp	.L2
.L238:
	addl	$5, %ebx
	movl	%ebx, 80(%esi)
	jmp	.L2
.L249:
	addl	$6, %ebx
	movl	%ebx, 80(%esi)
	jmp	.L2
.L250:
	addl	$4, %ebx
	movl	%ebx, 80(%esi)
	jmp	.L2
.L252:
	addl	$5, %ebx
	movl	%ebx, 80(%esi)
	jmp	.L2
.L239:
	addl	$4, %ebx
	movl	%ebx, 80(%esi)
	jmp	.L2
.L240:
	addl	$5, %ebx
	movl	%ebx, 80(%esi)
	jmp	.L2
.L248:
	addl	$5, %ebx
	movl	%ebx, 80(%esi)
	jmp	.L2
.L227:
	movzbl	%al, %eax
	movsbl	(%edi,%eax), %ebx
	addl	%edi, %ebx
	movl	%ebx, 80(%esi)
	jmp	.L2
.L383:
	addl	$6, %ebx
	movl	%ebx, 80(%esi)
	jmp	.L2
.L376:
	addl	$4, %ebx
	movl	%ebx, 80(%esi)
	jmp	.L2
.L378:
	addl	$5, %ebx
	movl	%ebx, 80(%esi)
	jmp	.L2
.L377:
	addl	$5, %ebx
	movl	%ebx, 80(%esi)
	jmp	.L2
.L382:
	addl	$5, %ebx
	movl	%ebx, 80(%esi)
	jmp	.L2
.L381:
	addl	$5, %ebx
	movl	%ebx, 80(%esi)
	jmp	.L2
.L380:
	addl	$4, %ebx
	movl	%ebx, 80(%esi)
	jmp	.L2
.L379:
	addl	$6, %ebx
	movl	%ebx, 80(%esi)
	jmp	.L2
.L411:
	leal	4(%edx), %ecx
	movzwl	%ax, %eax
	movl	%ecx, 88(%esi)
	movl	%edi, (%edx)
	movl	112(%esi), %edx
	movl	(%edx,%eax,4), %ebx
	movl	%ebx, 80(%esi)
	jmp	.L2
.L408:
	leal	3(%ebx), %edx
	movl	%edx, 80(%esi)
	movzbl	2(%ebx), %eax
	movzbl	3(%ebx), %ebx
	sall	$8, %eax
	orl	%eax, %ebx
	movswl	%bx, %ebx
	addl	%edx, %ebx
	movl	%ebx, 80(%esi)
	jmp	.L2
.L410:
	leal	4(%ebx), %edx
	movl	%edx, 80(%esi)
	movzbl	3(%ebx), %eax
	movzbl	4(%ebx), %ebx
	sall	$8, %eax
	orl	%eax, %ebx
	movswl	%bx, %ebx
	addl	%edx, %ebx
	movl	%ebx, 80(%esi)
	jmp	.L2
.L409:
	leal	5(%ebx), %edx
	movl	%edx, 80(%esi)
	movzbl	4(%ebx), %eax
	movzbl	5(%ebx), %ebx
	sall	$8, %eax
	orl	%eax, %ebx
	movswl	%bx, %ebx
	addl	%edx, %ebx
	movl	%ebx, 80(%esi)
	jmp	.L2
.L406:
	movl	8(%esp), %eax
	movl	4(%ecx,%ebp), %edx
	cmpl	%edx, 4(%edi,%eax)
	jne	.L279
	movl	8(%ecx,%ebp), %edx
	cmpl	%edx, 8(%edi,%eax)
	jne	.L279
	leal	5(%ebx), %edx
	movl	%edx, 80(%esi)
	movzbl	4(%ebx), %eax
	movzbl	5(%ebx), %ebx
	sall	$8, %eax
	orl	%eax, %ebx
	movswl	%bx, %ebx
	addl	%edx, %ebx
	movl	%ebx, 80(%esi)
	jmp	.L2
	.p2align 4,,10
	.p2align 3
.L405:
	movl	8(%esp), %eax
	movl	4(%ecx,%ebp), %edx
	cmpl	%edx, 4(%edi,%eax)
	jne	.L280
	movl	8(%ecx,%ebp), %edx
	cmpl	%edx, 8(%edi,%eax)
	jne	.L280
	addl	$6, %ebx
	movl	%ebx, 80(%esi)
	jmp	.L2
.L289:
	movl	$5, 84(%esi)
	jmp	.L387
.L284:
	movl	$6, 84(%esi)
	jmp	.L387
.L321:
	movl	%edi, %ebx
	jmp	.L2
.L320:
	movl	%edi, %ebx
	jmp	.L2
.L283:
	movl	$12, 84(%esi)
	jmp	.L387
.L287:
	movl	$7, 84(%esi)
	jmp	.L387
.L401:
	subl	$12, %esp
	.cfi_def_cfa_offset 60
	pushl	(%edx,%eax,4)
	.cfi_def_cfa_offset 64
	call	sqrtf
	addl	$16, %esp
	.cfi_def_cfa_offset 48
	fstps	4(%esp)
	vmovss	4(%esp), %xmm0
	jmp	.L298
.L235:
	movl	$10, 84(%esi)
	jmp	.L387
.L407:
	movl	$13, 84(%esi)
	jmp	.L387
.L236:
	movl	$2, 84(%esi)
	jmp	.L387
.L400:
	subl	$16, %esp
	.cfi_def_cfa_offset 64
	vmovss	%xmm0, (%esp)
	call	sqrtf
	addl	$16, %esp
	.cfi_def_cfa_offset 48
	fstps	8(%esp)
	vmovss	8(%esp), %xmm1
	jmp	.L300
.L395:
	subl	$16, %esp
	.cfi_def_cfa_offset 64
	vmovss	%xmm3, (%esp)
	call	sqrtf
	addl	$16, %esp
	.cfi_def_cfa_offset 48
	fstps	4(%esp)
	vmovss	(%ebx), %xmm2
	vmovss	4(%esp), %xmm0
	vmovss	4(%ebx), %xmm1
	vmovss	8(%ebx), %xmm4
	jmp	.L310
.L394:
	subl	$16, %esp
	.cfi_def_cfa_offset 64
	vmovss	%xmm2, (%esp)
	call	sqrtf
	addl	$16, %esp
	.cfi_def_cfa_offset 48
	fstps	4(%esp)
	vmovss	(%edi), %xmm1
	vmovss	4(%esp), %xmm3
	jmp	.L312
.L393:
	subl	$16, %esp
	.cfi_def_cfa_offset 64
	vmovss	%xmm2, (%esp)
	call	sqrtf
	addl	$16, %esp
	.cfi_def_cfa_offset 48
	fstps	4(%esp)
	vmovss	(%ebx), %xmm1
	vmovss	4(%esp), %xmm3
	jmp	.L314
.L402:
	subl	$12, %esp
	.cfi_def_cfa_offset 60
	pushl	(%edx,%eax,4)
	.cfi_def_cfa_offset 64
	call	sqrtf
	addl	$16, %esp
	.cfi_def_cfa_offset 48
	fstps	4(%esp)
	vmovss	4(%esp), %xmm0
	jmp	.L296
.L399:
	subl	$16, %esp
	.cfi_def_cfa_offset 64
	vmovss	%xmm0, (%esp)
	call	sqrtf
	addl	$16, %esp
	.cfi_def_cfa_offset 48
	fstps	4(%esp)
	vmovss	4(%esp), %xmm1
	jmp	.L302
.L398:
	subl	$16, %esp
	.cfi_def_cfa_offset 64
	vmovss	%xmm0, (%esp)
	call	sqrtf
	addl	$16, %esp
	.cfi_def_cfa_offset 48
	fstps	8(%esp)
	vmovss	8(%esp), %xmm1
	jmp	.L304
.L397:
	subl	$16, %esp
	.cfi_def_cfa_offset 64
	vmovss	%xmm0, (%esp)
	call	sqrtf
	addl	$16, %esp
	.cfi_def_cfa_offset 48
	fstps	4(%esp)
	vmovss	4(%esp), %xmm1
	jmp	.L306
.L404:
	subl	$12, %esp
	.cfi_def_cfa_offset 60
	movl	20(%esp), %eax
	pushl	(%esi,%eax,4)
	.cfi_def_cfa_offset 64
	call	sqrtf
	addl	$16, %esp
	.cfi_def_cfa_offset 48
	fstps	8(%esp)
	vmovss	8(%esp), %xmm0
	jmp	.L292
.L403:
	subl	$12, %esp
	.cfi_def_cfa_offset 60
	movl	20(%esp), %eax
	pushl	(%esi,%eax,4)
	.cfi_def_cfa_offset 64
	call	sqrtf
	addl	$16, %esp
	.cfi_def_cfa_offset 48
	fstps	4(%esp)
	vmovss	4(%esp), %xmm0
	jmp	.L294
.L392:
	subl	$16, %esp
	.cfi_def_cfa_offset 64
	vmovss	%xmm2, (%esp)
	call	sqrtf
	addl	$16, %esp
	.cfi_def_cfa_offset 48
	fstps	4(%esp)
	vmovss	64(%esi), %xmm0
	vmovss	4(%esp), %xmm3
	jmp	.L316
.L391:
	subl	$16, %esp
	.cfi_def_cfa_offset 64
	vmovss	%xmm3, (%esp)
	call	sqrtf
	addl	$16, %esp
	.cfi_def_cfa_offset 48
	fstps	4(%esp)
	vmovss	64(%esi), %xmm0
	vmovss	4(%esp), %xmm4
	vmovss	68(%esi), %xmm2
	vmovss	72(%esi), %xmm1
	jmp	.L318
.L396:
	subl	$16, %esp
	.cfi_def_cfa_offset 64
	vmovss	%xmm0, (%esp)
	call	sqrtf
	addl	$16, %esp
	.cfi_def_cfa_offset 48
	fstps	4(%esp)
	vmovss	4(%esp), %xmm1
	jmp	.L308
	.cfi_endproc
.LFE119:
	.size	_ZN3GVM11Interpreter7executeEv, .-_ZN3GVM11Interpreter7executeEv
	.section	.text.unlikely
.LCOLDE5:
	.text
.LHOTE5:
	.section	.text.unlikely
	.align 2
.LCOLDB6:
	.text
.LHOTB6:
	.align 2
	.p2align 4,,15
	.globl	_ZN3GVM11Interpreter4callEt
	.type	_ZN3GVM11Interpreter4callEt, @function
_ZN3GVM11Interpreter4callEt:
.LFB120:
	.cfi_startproc
	pushl	%ebx
	.cfi_def_cfa_offset 8
	.cfi_offset 3, -8
	movl	12(%esp), %edx
	movl	8(%esp), %eax
	testw	%dx, %dx
	je	.L413
	cmpw	124(%eax), %dx
	jnb	.L413
	movl	88(%eax), %ecx
	cmpl	100(%eax), %ecx
	jb	.L419
	movl	$8, 84(%eax)
	xorl	%eax, %eax
	popl	%ebx
	.cfi_remember_state
	.cfi_restore 3
	.cfi_def_cfa_offset 4
	ret
	.p2align 4,,10
	.p2align 3
.L413:
	.cfi_restore_state
	movl	$11, 84(%eax)
	xorl	%eax, %eax
	popl	%ebx
	.cfi_remember_state
	.cfi_restore 3
	.cfi_def_cfa_offset 4
	ret
	.p2align 4,,10
	.p2align 3
.L419:
	.cfi_restore_state
	leal	4(%ecx), %ebx
	movzwl	%dx, %edx
	movl	%ebx, 88(%eax)
	movl	80(%eax), %ebx
	movl	%ebx, (%ecx)
	movl	112(%eax), %ecx
	movl	(%ecx,%edx,4), %edx
	movl	%edx, 80(%eax)
	movl	$1, %eax
	popl	%ebx
	.cfi_restore 3
	.cfi_def_cfa_offset 4
	ret
	.cfi_endproc
.LFE120:
	.size	_ZN3GVM11Interpreter4callEt, .-_ZN3GVM11Interpreter4callEt
	.section	.text.unlikely
.LCOLDE6:
	.text
.LHOTE6:
	.section	.rodata.cst4,"aM",@progbits,4
	.align 4
.LC0:
	.long	3019898880
	.align 4
.LC1:
	.long	872415232
	.section	.rodata.cst16,"aM",@progbits,16
	.align 16
.LC2:
	.long	2147483648
	.long	0
	.long	0
	.long	0
	.section	.rodata.cst4
	.align 4
.LC3:
	.long	1065353216
	.ident	"GCC: (Ubuntu 5.4.0-6ubuntu1~16.04.10) 5.4.0 20160609"
	.section	.note.GNU-stack,"",@progbits
